
 Start         Length     Name                   Class
 0002:00000000 000021020H CODE                   CODE
 0003:00000000 000000608H DATA                   DATA
 0004:00000000 000000670H BSS                    
 0005:00000000 0000014C2H .idata                 DATA
 0006:00000000 000000008H .tls                   
 0007:00000000 000000018H .rdata                 DATA


  Address         Publics by Value

 0001:00000000       unknown_libname_415
 0001:0000007C       byte_40107C
 0001:000000A0       unknown_libname_420
 0001:000000B8       dword_4010B8
 0001:000001E9       byte_4011E9
 0001:000001EC       dword_4011EC
 0001:00000210       nullsub_1
 0001:00000214       CloseHandle
 0001:0000021C       CreateFileA
 0001:00000224       ExitProcess
 0001:0000022C       GetFileType
 0001:00000234       GetFileSize
 0001:0000023C       GetStdHandle
 0001:00000244       MessageBoxA
 0001:0000024C       RaiseException
 0001:00000254       ReadFile
 0001:0000025C       RtlUnwind
 0001:00000264       SetEndOfFile
 0001:0000026C       SetFilePointer
 0001:00000274       WriteFile
 0001:0000027C       GetCommandLineA
 0001:00000284       GetLastError
 0001:0000028C       GetModuleHandleA
 0001:00000294       MultiByteToWideChar
 0001:0000029C       TlsGetValue
 0001:000002A4       TlsSetValue
 0001:000002AC       WideCharToMultiByte
 0001:000002B4       SysAllocStringLen
 0001:000002BC       SysStringLen
 0001:000002C4       VariantClear
 0001:000002CC       VariantCopy
 0001:000002D4       VariantChangeTypeEx
 0001:000002DC       LocalAlloc
 0001:000002E4       LocalFree
 0001:000002EC       VirtualAlloc
 0001:000002F4       VirtualFree
 0001:000002FC       InitializeCriticalSection
 0001:00000304       EnterCriticalSection
 0001:0000030C       LeaveCriticalSection
 0001:00000314       DeleteCriticalSection
 0001:0000031C       System::_16420
 0001:0000033F       loc_40133F
 0001:0000034E       loc_40134E
 0001:00000362       loc_401362
 0001:0000036C       System::_16421
 0001:00000374       System::_16422
 0001:00000388       loc_401388
 0001:000003A4       sub_4013A4
 0001:000003B0       sub_4013B0
 0001:000003C3       loc_4013C3
 0001:000003E3       loc_4013E3
 0001:000003F9       loc_4013F9
 0001:00000410       loc_401410
 0001:00000414       System::_16438
 0001:0000041F       loc_40141F
 0001:00000455       loc_401455
 0001:0000046A       loc_40146A
 0001:00000490       loc_401490
 0001:00000494       loc_401494
 0001:0000049C       loc_40149C
 0001:000004A4       System::_16426
 0001:000004BA       loc_4014BA
 0001:000004C6       loc_4014C6
 0001:00000503       loc_401503
 0001:00000508       System::_16427
 0001:00000552       loc_401552
 0001:0000057A       loc_40157A
 0001:00000580       sub_401580
 0001:000005AB       loc_4015AB
 0001:000005C7       loc_4015C7
 0001:000005D2       loc_4015D2
 0001:000005ED       loc_4015ED
 0001:000005F4       loc_4015F4
 0001:000005F6       loc_4015F6
 0001:0000061F       loc_40161F
 0001:00000628       System::_16429
 0001:0000066E       loc_40166E
 0001:0000067C       loc_40167C
 0001:00000686       loc_401686
 0001:000006A8       loc_4016A8
 0001:000006AA       loc_4016AA
 0001:000006B2       loc_4016B2
 0001:000006BC       System::_16430
 0001:000006F3       loc_4016F3
 0001:00000703       loc_401703
 0001:00000709       loc_401709
 0001:00000729       loc_401729
 0001:0000072B       loc_40172B
 0001:0000073C       System::_16431
 0001:00000758       loc_401758
 0001:0000075D       loc_40175D
 0001:0000078E       loc_40178E
 0001:00000790       loc_401790
 0001:000007C3       loc_4017C3
 0001:000007CC       System::_16432
 0001:000007EB       loc_4017EB
 0001:000007F0       loc_4017F0
 0001:000007F2       loc_4017F2
 0001:000007FB       loc_4017FB
 0001:00000857       loc_401857
 0001:0000089F       loc_40189F
 0001:000008E0       loc_4018E0
 0001:000008E7       loc_4018E7
 0001:000008F0       System::_16433
 0001:0000095A       loc_40195A
 0001:00000971       loc_401971
 0001:00000975       loc_401975
 0001:0000097C       System::_16447
 0001:000009AA       loc_4019AA
 0001:000009E7       loc_4019E7
 0001:00000A11       loc_401A11
 0001:00000A1E       loc_401A1E
 0001:00000A31       loc_401A31
 0001:00000A32       loc_401A32
 0001:00000A39       loc_401A39
 0001:00000A40       System::_16435
 0001:00000A72       loc_401A72
 0001:00000A93       loc_401A93
 0001:00000AA5       loc_401AA5
 0001:00000AD4       loc_401AD4
 0001:00000AEB       loc_401AEB
 0001:00000AFA       loc_401AFA
 0001:00000B0D       loc_401B0D
 0001:00000B18       loc_401B18
 0001:00000B1F       loc_401B1F
 0001:00000B24       System::_16436
 0001:00000B36       loc_401B36
 0001:00000B58       loc_401B58
 0001:00000B6E       loc_401B6E
 0001:00000B75       loc_401B75
 0001:00000B78       System::_16437
 0001:00000B80       loc_401B80
 0001:00000B8E       loc_401B8E
 0001:00000B90       loc_401B90
 0001:00000BA4       loc_401BA4
 0001:00000BA8       System::_16438
 0001:00000BC5       loc_401BC5
 0001:00000BD6       loc_401BD6
 0001:00000BD8       System::_16439
 0001:00000BFC       System::_16440
 0001:00000C0F       loc_401C0F
 0001:00000C1E       loc_401C1E
 0001:00000C24       System::_16441
 0001:00000C47       loc_401C47
 0001:00000C67       loc_401C67
 0001:00000C85       loc_401C85
 0001:00000C8C       loc_401C8C
 0001:00000C94       System::_16442
 0001:00000CAF       loc_401CAF
 0001:00000CC6       loc_401CC6
 0001:00000CCC       System::_16443
 0001:00000CF8       loc_401CF8
 0001:00000D13       loc_401D13
 0001:00000D22       loc_401D22
 0001:00000D2D       loc_401D2D
 0001:00000D52       loc_401D52
 0001:00000D5D       loc_401D5D
 0001:00000D64       System::_16444
 0001:00000DA4       loc_401DA4
 0001:00000DB2       loc_401DB2
 0001:00000DC7       loc_401DC7
 0001:00000DDE       loc_401DDE
 0001:00000DE4       System::_16445
 0001:00000E02       loc_401E02
 0001:00000E2D       locret_401E2D
 0001:00000E30       System::_16446
 0001:00000E60       loc_401E60
 0001:00000E70       loc_401E70
 0001:00000E87       loc_401E87
 0001:00000EA1       loc_401EA1
 0001:00000EB2       loc_401EB2
 0001:00000EBC       System::_16447
 0001:00000EDD       loc_401EDD
 0001:00000EE1       loc_401EE1
 0001:00000EE3       loc_401EE3
 0001:00000EE8       System::_16448
 0001:00000F0E       loc_401F0E
 0001:00000F12       loc_401F12
 0001:00000F14       loc_401F14
 0001:00000F1C       System::_16449
 0001:00000F28       loc_401F28
 0001:00000F3E       loc_401F3E
 0001:00000F44       System::_16450
 0001:00000F54       loc_401F54
 0001:00000F6F       loc_401F6F
 0001:00000F84       loc_401F84
 0001:00000F99       loc_401F99
 0001:00000FAB       loc_401FAB
 0001:00000FC1       loc_401FC1
 0001:00000FE7       loc_401FE7
 0001:00001006       loc_402006
 0001:00001011       loc_402011
 0001:00001018       loc_402018
 0001:00001033       loc_402033
 0001:00001038       sub_402038
 0001:0000105F       loc_40205F
 0001:00001080       loc_402080
 0001:00001090       loc_402090
 0001:000010A5       loc_4020A5
 0001:000010CF       loc_4020CF
 0001:000010E0       loc_4020E0
 0001:000010E9       loc_4020E9
 0001:00001106       loc_402106
 0001:0000112F       loc_40212F
 0001:00001153       loc_402153
 0001:00001181       loc_402181
 0001:00001198       loc_402198
 0001:000011AB       loc_4021AB
 0001:000011AC       loc_4021AC
 0001:000011B3       loc_4021B3
 0001:000011C0       System::SysFreeMem(void *)
 0001:000011F8       loc_4021F8
 0001:00001219       loc_402219
 0001:00001234       loc_402234
 0001:00001264       loc_402264
 0001:00001273       loc_402273
 0001:0000128B       loc_40228B
 0001:00001294       loc_402294
 0001:000012C5       loc_4022C5
 0001:000012D4       loc_4022D4
 0001:000012F2       loc_4022F2
 0001:000012F7       loc_4022F7
 0001:0000130A       loc_40230A
 0001:00001316       loc_402316
 0001:00001320       loc_402320
 0001:00001329       loc_402329
 0001:0000133E       loc_40233E
 0001:00001351       loc_402351
 0001:00001352       loc_402352
 0001:00001359       loc_402359
 0001:00001364       System::_16453
 0001:0000137D       loc_40237D
 0001:000013E0       loc_4023E0
 0001:000013F4       loc_4023F4
 0001:00001415       loc_402415
 0001:0000141C       loc_40241C
 0001:0000146C       loc_40246C
 0001:0000148A       loc_40248A
 0001:00001493       loc_402493
 0001:000014B9       loc_4024B9
 0001:000014D9       loc_4024D9
 0001:000014E5       loc_4024E5
 0001:0000150F       loc_40250F
 0001:00001513       loc_402513
 0001:0000152C       loc_40252C
 0001:00001534       sub_402534
 0001:0000155B       loc_40255B
 0001:0000157C       loc_40257C
 0001:0000158E       loc_40258E
 0001:000015AC       loc_4025AC
 0001:000015C2       loc_4025C2
 0001:000015C5       loc_4025C5
 0001:000015D2       loc_4025D2
 0001:000015E5       loc_4025E5
 0001:000015E6       loc_4025E6
 0001:000015ED       loc_4025ED
 0001:000015F8       System::__linkproc__ GetMem(void)
 0001:00001606       locret_402606
 0001:00001607       loc_402607
 0001:00001610       System::__linkproc__ FreeMem(void)
 0001:0000161E       locret_40261E
 0001:0000161F       loc_40261F
 0001:00001628       System::__linkproc__ ReallocMem(void *&,int)
 0001:00001643       loc_402643
 0001:0000164A       loc_40264A
 0001:00001659       loc_402659
 0001:00001660       loc_402660
 0001:00001674       locret_402674
 0001:00001678       loc_402678
 0001:00001688       loc_402688
 0001:0000169C       loc_40269C
 0001:000016A1       byte_4026A1
 0001:000016B8       System::__linkproc__ _IOTest(void)
 0001:000016CD       loc_4026CD
 0001:000016D8       sub_4026D8
 0001:000016E8       @Move
 0001:00001707       loc_402707
 0001:00001725       loc_402725
 0001:00001728       sub_402728
 0001:00001734       System::__linkproc__ PStrNCpy(void)
 0001:00001754       loc_402754
 0001:00001764       System::__linkproc__ AStrCmp(void)
 0001:0000176E       loc_40276E
 0001:0000178E       loc_40278E
 0001:00001794       loc_402794
 0001:000017B6       loc_4027B6
 0001:000017BB       loc_4027BB
 0001:000017D0       loc_4027D0
 0001:000017D4       System::__linkproc__ FillChar(void *,int,char)
 0001:000017F1       loc_4027F1
 0001:000017F4       __linkproc__ ValLong
 0001:00001807       loc_402807
 0001:00001820       loc_402820
 0001:00001824       loc_402824
 0001:00001846       loc_402846
 0001:00001849       loc_402849
 0001:0000184F       loc_40284F
 0001:00001852       loc_402852
 0001:00001856       loc_402856
 0001:0000185B       loc_40285B
 0001:0000185D       loc_40285D
 0001:00001862       loc_402862
 0001:0000186E       loc_40286E
 0001:00001876       loc_402876
 0001:00001889       loc_402889
 0001:0000189C       System::_16694
 0001:000018A8       sub_4028A8
 0001:000018AC       sub_4028AC
 0001:000018C0       sub_4028C0
 0001:000018D4       loc_4028D4
 0001:000018E3       loc_4028E3
 0001:000018E8       sub_4028E8
 0001:000018EC       sub_4028EC
 0001:00001914       sub_402914
 0001:0000191A       loc_40291A
 0001:0000192B       loc_40292B
 0001:00001938       loc_402938
 0001:0000193C       sub_40293C
 0001:00001948       loc_402948
 0001:00001956       locret_402956
 0001:00001958       sub_402958
 0001:00001961       locret_402961
 0001:00001964       System::TObject::Free(void)
 0001:0000196F       locret_40296F
 0001:00001970       sub_402970
 0001:0000198C       sub_40298C
 0001:00001992       loc_402992
 0001:000019A3       loc_4029A3
 0001:000019AC       sub_4029AC
 0001:000019B2       loc_4029B2
 0001:000019BE       loc_4029BE
 0001:000019C0       locret_4029C0
 0001:000019C4       sub_4029C4
 0001:000019CA       loc_4029CA
 0001:000019DC       locret_4029DC
 0001:000019E0       sub_4029E0
 0001:000019E2       loc_4029E2
 0001:000019F6       loc_4029F6
 0001:000019FF       loc_4029FF
 0001:00001A0C       System::__linkproc__ CallDynaInst(void)
 0001:00001A1B       loc_402A1B
 0001:00001A24       loc_402A24
 0001:00001A30       loc_402A30
 0001:00001A34       sub_402A34
 0001:00001A38       nullsub_3
 0001:00001A3C       System::TObject::Dispatch(void *)
 0001:00001A5C       loc_402A5C
 0001:00001A64       sub_402A64
 0001:00001A6D       loc_402A6D
 0001:00001A7A       loc_402A7A
 0001:00001A81       loc_402A81
 0001:00001A89       loc_402A89
 0001:00001A92       loc_402A92
 0001:00001A96       loc_402A96
 0001:00001A98       loc_402A98
 0001:00001AAA       loc_402AAA
 0001:00001AB0       sub_402AB0
 0001:00001AB9       loc_402AB9
 0001:00001AC6       loc_402AC6
 0001:00001AD3       loc_402AD3
 0001:00001ADE       loc_402ADE
 0001:00001AE8       loc_402AE8
 0001:00001AEC       sub_402AEC
 0001:00001AF8       loc_402AF8
 0001:00001B05       loc_402B05
 0001:00001B0C       loc_402B0C
 0001:00001B13       loc_402B13
 0001:00001B1D       loc_402B1D
 0001:00001B24       loc_402B24
 0001:00001B38       loc_402B38
 0001:00001B3C       __linkproc__ ClassCreate
 0001:00001B61       sub_402B61
 0001:00001B78       System::__linkproc__ ClassDestroy(System::TObject *)
 0001:00001B80       sub_402B80
 0001:00001B99       locret_402B99
 0001:00001B9C       sub_402B9C
 0001:00001BBB       locret_402BBB
 0001:00001BBC       loc_402BBC
 0001:00001BD0       System::_16738
 0001:00001BE2       locret_402BE2
 0001:00001BE4       System::_16739
 0001:00001BF4       locret_402BF4
 0001:00001BF8       System::_16740
 0001:00001C10       loc_402C10
 0001:00001C13       loc_402C13
 0001:00001C15       locret_402C15
 0001:00001C18       sub_402C18
 0001:00001C3D       locret_402C3D
 0001:00001C40       sub_402C40
 0001:00001C5A       locret_402C5A
 0001:00001C5C       sub_402C5C
 0001:00001C78       locret_402C78
 0001:00001C7C       sub_402C7C
 0001:00001CCA       loc_402CCA
 0001:00001CED       loc_402CED
 0001:00001D19       loc_402D19
 0001:00001D39       loc_402D39
 0001:00001D40       loc_402D40
 0001:00001D77       loc_402D77
 0001:00001D7C       loc_402D7C
 0001:00001D8F       loc_402D8F
 0001:00001D97       loc_402D97
 0001:00001DBA       loc_402DBA
 0001:00001DD2       loc_402DD2
 0001:00001DFC       loc_402DFC
 0001:00001E1C       loc_402E1C
 0001:00001E48       j_unknown_libname_27
 0001:00001E68       unknown_libname_278
 0001:00001E70       System::_16747
 0001:00001EA0       loc_402EA0
 0001:00001EA8       dword_402EA8
 0001:00001ED8       dword_402ED8
 0001:00001F00       dword_402F00
 0001:00001F28       sub_402F28
 0001:00001F44       sub_402F44
 0001:00001F7E       loc_402F7E
 0001:00001F8F       loc_402F8F
 0001:00001F98       System::__linkproc__ DoneExcept(void)
 0001:00001FC8       System::__linkproc__ TryFinallyExit(void)
 0001:00001FE0       System::_16596
 0001:00001FEC       loc_402FEC
 0001:00002019       loc_403019
 0001:00002027       loc_403027
 0001:0000203F       loc_40303F
 0001:0000204D       loc_40304D
 0001:00002051       loc_403051
 0001:00002055       loc_403055
 0001:00002059       loc_403059
 0001:0000205D       loc_40305D
 0001:00002061       loc_403061
 0001:00002065       loc_403065
 0001:00002069       loc_403069
 0001:0000206D       loc_40306D
 0001:00002071       loc_403071
 0001:00002075       loc_403075
 0001:00002079       loc_403079
 0001:0000207B       loc_40307B
 0001:0000208C       loc_40308C
 0001:000020B0       loc_4030B0
 0001:000020DF       loc_4030DF
 0001:000020F0       loc_4030F0
 0001:00002104       loc_403104
 0001:00002108       System::_16599
 0001:00002128       System::_16600
 0001:0000213D       loc_40313D
 0001:0000213F       loc_40313F
 0001:0000214C       locret_40314C
 0001:00002150       sub_403150
 0001:00002180       sub_403180
 0001:00002193       loc_403193
 0001:000021AE       loc_4031AE
 0001:000021BC       sub_4031BC
 0001:000021D7       loc_4031D7
 0001:000021E2       loc_4031E2
 0001:000021F0       sub_4031F0
 0001:0000220F       locret_40320F
 0001:00002210       System::__linkproc__ LStrArrayClr(void)
 0001:00002216       loc_403216
 0001:00002235       loc_403235
 0001:00002240       System::__linkproc__ LStrAsg(void)
 0001:00002264       loc_403264
 0001:00002267       loc_403267
 0001:00002280       locret_403280
 0001:00002284       System::__linkproc__ LStrLAsg(void)
 0001:00002291       loc_403291
 0001:000022AA       locret_4032AA
 0001:000022AC       System::__linkproc__ NewAnsiString(void)
 0001:000022CC       loc_4032CC
 0001:000022D0       System::__linkproc__ LStrFromPCharLen(System::AnsiString &,char *,int)
 0001:000022F1       loc_4032F1
 0001:00002300       unknown_libname_421
 0001:00002310       sub_403310
 0001:0000231C       __linkproc__ LStrFromPChar
 0001:00002323       loc_403323
 0001:0000233B       loc_40333B
 0001:0000233C       loc_40333C
 0001:0000233D       loc_40333D
 0001:0000233E       loc_40333E
 0001:00002343       loc_403343
 0001:0000234C       unknown_libname_422
 0001:00002359       loc_403359
 0001:00002364       __linkproc__ LStrLen
 0001:0000236B       locret_40336B
 0001:0000236C       System::__linkproc__ LStrCat(void)
 0001:00002397       loc_403397
 0001:000023A4       loc_4033A4
 0001:000023AF       locret_4033AF
 0001:000023B0       System::__linkproc__ LStrCat3(void)
 0001:000023D2       loc_4033D2
 0001:0000240C       loc_40340C
 0001:00002415       loc_403415
 0001:0000241C       loc_40341C
 0001:00002424       System::__linkproc__ LStrCatN(void)
 0001:0000242C       loc_40342C
 0001:00002437       loc_403437
 0001:00002442       loc_403442
 0001:00002456       loc_403456
 0001:00002462       loc_403462
 0001:00002474       System::__linkproc__ LStrCmp(void)
 0001:00002497       loc_403497
 0001:0000249D       loc_40349D
 0001:000024BD       loc_4034BD
 0001:000024C3       loc_4034C3
 0001:000024EB       loc_4034EB
 0001:000024EF       loc_4034EF
 0001:000024F6       loc_4034F6
 0001:000024FD       loc_4034FD
 0001:00002512       loc_403512
 0001:00002518       System::__linkproc__ LStrAddRef(void)
 0001:00002525       locret_403525
 0001:00002528       System::__linkproc__ LStrToPChar(System::AnsiString)
 0001:0000252D       byte_40352D
 0001:0000252E       loc_40352E
 0001:00002534       System::UniqueString(System::AnsiString &)
 0001:0000255A       loc_40355A
 0001:00002565       loc_403565
 0001:00002568       System::__linkproc__ LStrCopy(void)
 0001:0000257B       loc_40357B
 0001:00002585       loc_403585
 0001:00002592       loc_403592
 0001:00002596       loc_403596
 0001:0000259A       loc_40359A
 0001:000025A3       loc_4035A3
 0001:000025A8       System::__linkproc__ LStrDelete(void)
 0001:000025D2       loc_4035D2
 0001:000025EC       loc_4035EC
 0001:000025F0       __linkproc__ LStrPos
 0001:00002610       loc_403610
 0001:00002624       loc_403624
 0001:00002629       loc_403629
 0001:0000262C       loc_40362C
 0001:00002631       loc_403631
 0001:00002634       locret_403634
 0001:00002638       System::__linkproc__ LStrSetLength(void)
 0001:0000266E       loc_40366E
 0001:00002688       loc_403688
 0001:0000268D       loc_40368D
 0001:00002696       loc_403696
 0001:0000269C       System::__linkproc__ LStrToString(void)
 0001:000026AE       loc_4036AE
 0001:000026B9       loc_4036B9
 0001:000026C0       sub_4036C0
 0001:000026D2       loc_4036D2
 0001:000026E8       sub_4036E8
 0001:00002716       loc_403716
 0001:00002724       loc_403724
 0001:0000272D       loc_40372D
 0001:0000273C       loc_40373C
 0001:0000273F       loc_40373F
 0001:00002758       loc_403758
 0001:0000275B       loc_40375B
 0001:0000276C       loc_40376C
 0001:00002770       unknown_libname_423
 0001:0000277C       System::WideCharLenToStrVar(wchar_t *,int,System::AnsiString &)
 0001:00002799       loc_403799
 0001:000027C7       loc_4037C7
 0001:000027FA       loc_4037FA
 0001:00002808       sub_403808
 0001:00002824       System::StringToOleStr(System::AnsiString)
 0001:00002872       loc_403872
 0001:0000289A       loc_40389A
 0001:000028A8       sub_4038A8
 0001:000028B0       __linkproc__ VarClear
 0001:000028D7       loc_4038D7
 0001:000028DD       loc_4038DD
 0001:000028E4       sub_4038E4
 0001:000028FF       loc_4038FF
 0001:00002907       loc_403907
 0001:00002909       loc_403909
 0001:00002920       loc_403920
 0001:00002937       loc_403937
 0001:00002940       loc_403940
 0001:0000294C       locret_40394C
 0001:00002950       System::_16711
 0001:00002987       loc_403987
 0001:000029A1       loc_4039A1
 0001:000029B9       loc_4039B9
 0001:000029C0       Variants::_16474
 0001:000029F0       Variants::_16476
 0001:00002A10       sub_403A10
 0001:00002A31       loc_403A31
 0001:00002A4A       loc_403A4A
 0001:00002A80       loc_403A80
 0001:00002A89       loc_403A89
 0001:00002A90       loc_403A90
 0001:00002AA7       loc_403AA7
 0001:00002ADF       loc_403ADF
 0001:00002AE8       loc_403AE8
 0001:00002AEF       loc_403AEF
 0001:00002AF9       loc_403AF9
 0001:00002B00       System::__linkproc__ VarToLStr(System::AnsiString &,System::Variant &)
 0001:00002B0F       loc_403B0F
 0001:00002B3C       __linkproc__ VarClear
 0001:00002B44       loc_403B44
 0001:00002B60       sub_403B60
 0001:00002B84       sub_403B84
 0001:00002BA5       loc_403BA5
 0001:00002BAB       sub_403BAB
 0001:00002BAE       sub_403BAE
 0001:00002BD0       loc_403BD0
 0001:00002BD2       loc_403BD2
 0001:00002BD4       loc_403BD4
 0001:00002BDB       loc_403BDB
 0001:00002BED       loc_403BED
 0001:00002BF3       loc_403BF3
 0001:00002C0B       loc_403C0B
 0001:00002C23       loc_403C23
 0001:00002C34       loc_403C34
 0001:00002C43       loc_403C43
 0001:00002C4A       loc_403C4A
 0001:00002CAB       loc_403CAB
 0001:00002CE2       loc_403CE2
 0001:00002CF3       loc_403CF3
 0001:00002D10       loc_403D10
 0001:00002D24       loc_403D24
 0001:00002D26       loc_403D26
 0001:00002D32       loc_403D32
 0001:00002D52       loc_403D52
 0001:00002D54       loc_403D54
 0001:00002D56       loc_403D56
 0001:00002D6B       loc_403D6B
 0001:00002D79       sub_403D79
 0001:00002DB3       loc_403DB3
 0001:00002DCC       loc_403DCC
 0001:00002DCE       locret_403DCE
 0001:00002DE1       locret_403DE1
 0001:00002DE2       loc_403DE2
 0001:00002DEF       loc_403DEF
 0001:00002DF4       loc_403DF4
 0001:00002E06       locret_403E06
 0001:00002E07       loc_403E07
 0001:00002E14       loc_403E14
 0001:00002E1C       System::__linkproc__ Close(void)
 0001:00002E38       loc_403E38
 0001:00002E3F       loc_403E3F
 0001:00002E41       loc_403E41
 0001:00002E48       loc_403E48
 0001:00002E58       loc_403E58
 0001:00002E7D       loc_403E7D
 0001:00002E92       loc_403E92
 0001:00002EAA       loc_403EAA
 0001:00002EC7       loc_403EC7
 0001:00002EF8       loc_403EF8
 0001:00002F0C       loc_403F0C
 0001:00002F33       loc_403F33
 0001:00002F3E       loc_403F3E
 0001:00002F6B       byte_403F6B
 0001:00002F7B       sub_403F7B
 0001:00002F7F       loc_403F7F
 0001:00002F90       sub_403F90
 0001:00002F9C       sub_403F9C
 0001:00002FB7       loc_403FB7
 0001:00002FC8       loc_403FC8
 0001:00002FCB       loc_403FCB
 0001:00002FD7       _RESETTEXT
 0001:00002FDE       _REWRITTEXT
 0001:00002FE5       _APPEND
 0001:00002FEC       _WRITEBYTES
 0001:00002FF9       loc_403FF9
 0001:0000301F       loc_40401F
 0001:00003024       loc_404024
 0001:00003027       loc_404027
 0001:00003042       loc_404042
 0001:0000304E       loc_40404E
 0001:00003057       _WRITESPACES
 0001:00003059       loc_404059
 0001:00003084       loc_404084
 0001:0000308D       loc_40408D
 0001:00003090       _WRITE0STRING
 0001:0000309A       _WRITESTRING
 0001:000030AE       loc_4040AE
 0001:000030B7       _WRITELN
 0001:000030CB       _WRITE0CHAR
 0001:000030D4       loc_4040D4
 0001:000030E5       loc_4040E5
 0001:000030F2       loc_4040F2
 0001:0000310B       loc_40410B
 0001:00003115       loc_404115
 0001:0000311D       _WRITECHAR
 0001:00003134       _WRITE0CSTRING
 0001:00003138       _WRITECSTRING
 0001:00003164       _POW10
 0001:0000319E       loc_40419E
 0001:000031AF       locret_4041AF
 0001:000031B0       loc_4041B0
 0001:000031E2       loc_4041E2
 0001:000031F4       loc_4041F4
 0001:000031FB       loc_4041FB
 0001:000031FE       tbyte_4041FE
 0001:00003208       tbyte_404208
 0001:0000333E       tbyte_40433E
 0001:000033D4       tbyte_4043D4
 0001:00003438       sub_404438
 0001:000034D9       loc_4044D9
 0001:000034DA       loc_4044DA
 0001:000034E1       loc_4044E1
 0001:000034E8       dword_4044E8
 0001:000034EC       CloseHandle_0
 0001:000034F4       CompareStringA
 0001:000034FC       CreateFileA_0
 0001:00003504       CreateThread
 0001:0000350C       FindResourceA
 0001:00003514       FreeLibrary
 0001:0000351C       FreeResource
 0001:00003524       GetCurrentProcess
 0001:0000352C       GetCurrentProcessId
 0001:00003534       GetCurrentThreadId
 0001:0000353C       GetLocaleInfoA
 0001:00003544       GetModuleFileNameA
 0001:0000354C       GetProcAddress
 0001:00003554       GetSystemDefaultLCID
 0001:0000355C       GetVersion
 0001:00003564       GetVersionExA
 0001:0000356C       GlobalAddAtomA
 0001:00003574       GlobalAlloc
 0001:0000357C       GlobalDeleteAtom
 0001:00003584       GlobalFree
 0001:0000358C       GlobalLock
 0001:00003594       GlobalHandle
 0001:0000359C       GlobalReAlloc
 0001:000035A4       GlobalUnlock
 0001:000035AC       LoadLibraryA
 0001:000035B4       LoadResource
 0001:000035BC       LockResource
 0001:000035C4       MulDiv
 0001:000035CC       ReadFile_0
 0001:000035D4       SetErrorMode
 0001:000035DC       SetFilePointer_0
 0001:000035E4       SizeofResource
 0001:000035EC       TerminateThread
 0001:000035F4       VirtualAlloc_0
 0001:000035FC       WriteFile_0
 0001:00003604       CreateBitmap
 0001:0000360C       CreateBrushIndirect
 0001:00003614       CreateCompatibleBitmap
 0001:0000361C       CreateCompatibleDC
 0001:00003624       CreateDIBitmap
 0001:0000362C       CreateFontIndirectA
 0001:00003634       CreatePenIndirect
 0001:0000363C       CreateRectRgn
 0001:00003644       CreateSolidBrush
 0001:0000364C       DeleteDC
 0001:00003654       DeleteObject
 0001:0000365C       EnumFontsA
 0001:00003664       ExcludeClipRect
 0001:0000366C       GetBitmapBits
 0001:00003674       GetCurrentPositionEx
 0001:0000367C       GetDIBits
 0001:00003684       GetDeviceCaps
 0001:0000368C       GetObjectA
 0001:00003694       GetStockObject
 0001:0000369C       GetTextExtentPointA
 0001:000036A4       GetTextMetricsA
 0001:000036AC       GetWindowOrgEx
 0001:000036B4       IntersectClipRect
 0001:000036BC       MoveToEx
 0001:000036C4       RealizePalette
 0001:000036CC       RectVisible
 0001:000036D4       RestoreDC
 0001:000036DC       SaveDC
 0001:000036E4       SelectObject
 0001:000036EC       SelectPalette
 0001:000036F4       SetBkColor
 0001:000036FC       SetBkMode
 0001:00003704       SetROP2
 0001:0000370C       SetTextColor
 0001:00003714       SetViewportOrgEx
 0001:0000371C       SetWindowOrgEx
 0001:00003724       StretchBlt
 0001:0000372C       UnrealizeObject
 0001:00003734       AdjustWindowRectEx
 0001:0000373C       CharLowerA
 0001:00003744       BeginPaint
 0001:0000374C       CallNextHookEx
 0001:00003754       CallWindowProcA
 0001:0000375C       CheckMenuItem
 0001:00003764       ClientToScreen
 0001:0000376C       CreateIcon
 0001:00003774       CreateMenu
 0001:0000377C       CreatePopupMenu
 0001:00003784       CreateWindowExA
 0001:0000378C       DefFrameProcA
 0001:00003794       DefMDIChildProcA
 0001:0000379C       DefWindowProcA
 0001:000037A4       DeleteMenu
 0001:000037AC       DestroyCursor
 0001:000037B4       DestroyIcon
 0001:000037BC       DestroyMenu
 0001:000037C4       DestroyWindow
 0001:000037CC       DispatchMessageA
 0001:000037D4       DrawIcon
 0001:000037DC       DrawMenuBar
 0001:000037E4       DrawTextA
 0001:000037EC       EnableMenuItem
 0001:000037F4       EnableWindow
 0001:000037FC       EndPaint
 0001:00003804       EnumThreadWindows
 0001:0000380C       EnumWindows
 0001:00003814       EqualRect
 0001:0000381C       FillRect
 0001:00003824       FrameRect
 0001:0000382C       GetActiveWindow
 0001:00003834       GetCapture
 0001:0000383C       GetClassInfoA
 0001:00003844       GetClientRect
 0001:0000384C       GetCursor
 0001:00003854       GetCursorPos
 0001:0000385C       GetDC
 0001:00003864       GetDCEx
 0001:0000386C       GetDesktopWindow
 0001:00003874       GetFocus
 0001:0000387C       GetForegroundWindow
 0001:00003884       GetIconInfo
 0001:0000388C       GetKeyNameTextA
 0001:00003894       GetKeyState
 0001:0000389C       GetLastActivePopup
 0001:000038A4       GetMenu
 0001:000038AC       GetMenuItemCount
 0001:000038B4       GetMenuState
 0001:000038BC       GetMenuStringA
 0001:000038C4       GetParent
 0001:000038CC       GetPropA
 0001:000038D4       GetScrollPos
 0001:000038DC       GetSubMenu
 0001:000038E4       GetSysColor
 0001:000038EC       GetSystemMenu
 0001:000038F4       GetSystemMetrics
 0001:000038FC       GetWindow
 0001:00003904       GetWindowLongA
 0001:0000390C       GetWindowPlacement
 0001:00003914       GetWindowRect
 0001:0000391C       GetWindowRgn
 0001:00003924       GetWindowTextA
 0001:0000392C       InflateRect
 0001:00003934       InsertMenuA
 0001:0000393C       InsertMenuItemA
 0001:00003944       IntersectRect
 0001:0000394C       InvalidateRect
 0001:00003954       IsDialogMessageA
 0001:0000395C       IsIconic
 0001:00003964       IsRectEmpty
 0001:0000396C       IsWindow
 0001:00003974       IsWindowEnabled
 0001:0000397C       IsWindowVisible
 0001:00003984       IsZoomed
 0001:0000398C       KillTimer
 0001:00003994       LoadCursorA
 0001:0000399C       LoadIconA
 0001:000039A4       LoadStringA
 0001:000039AC       MapVirtualKeyA
 0001:000039B4       MessageBoxA_0
 0001:000039BC       OemToCharA
 0001:000039C4       OffsetRect
 0001:000039CC       PeekMessageA
 0001:000039D4       PostMessageA
 0001:000039DC       PostQuitMessage
 0001:000039E4       PtInRect
 0001:000039EC       RegisterClassA
 0001:000039F4       RegisterWindowMessageA
 0001:000039FC       ReleaseCapture
 0001:00003A04       ReleaseDC
 0001:00003A0C       RemoveMenu
 0001:00003A14       RemovePropA
 0001:00003A1C       ScreenToClient
 0001:00003A24       ScrollWindow
 0001:00003A2C       SendMessageA
 0001:00003A34       SetActiveWindow
 0001:00003A3C       SetCapture
 0001:00003A44       SetCursor
 0001:00003A4C       SetFocus
 0001:00003A54       SetForegroundWindow
 0001:00003A5C       SetMenu
 0001:00003A64       SetPropA
 0001:00003A6C       SetRect
 0001:00003A74       SetScrollInfo
 0001:00003A7C       SetScrollPos
 0001:00003A84       SetTimer
 0001:00003A8C       SetWindowLongA
 0001:00003A94       SetWindowPlacement
 0001:00003A9C       SetWindowPos
 0001:00003AA4       SetWindowsHookExA
 0001:00003AAC       SetWindowRgn
 0001:00003AB4       ShowCursor
 0001:00003ABC       ShowOwnedPopups
 0001:00003AC4       ShowWindow
 0001:00003ACC       SystemParametersInfoA
 0001:00003AD4       TrackPopupMenu
 0001:00003ADC       TranslateMDISysAccel
 0001:00003AE4       TranslateMessage
 0001:00003AEC       UnhookWindowsHookEx
 0001:00003AF4       UnregisterClassA
 0001:00003AFC       UpdateWindow
 0001:00003B04       WaitForInputIdle
 0001:00003B0C       WaitMessage
 0001:00003B14       WinHelpA
 0001:00003B1C       WindowFromPoint
 0001:00003B24       @HiByte
 0001:00003B2C       sub_404B2C
 0001:00003B30       Windows::GlobalAllocPtr(int,int)
 0001:00003B40       Windows::GlobalReAllocPtr(void *,int,int)
 0001:00003B5C       Windows::GlobalFreePtr(void *)
 0001:00003B70       Windows::SmallPointToPoint(Types::TSmallPoint)
 0001:00003B84       Windows::PointToSmallPoint(Types::TPoint &)
 0001:00003B9C       unknown_libname_424
 0001:00003C04       dword_404C04
 0001:00003C16       aException
 0001:00003C54       dword_404C54
 0001:00003C90       dword_404C90
 0001:00003CD4       dword_404CD4
 0001:00003D14       dword_404D14
 0001:00003D54       dword_404D54
 0001:00003D94       dword_404D94
 0001:00003DD4       dword_404DD4
 0001:00003E18       dword_404E18
 0001:00003E58       dword_404E58
 0001:00003E98       dword_404E98
 0001:00003ED8       dword_404ED8
 0001:00003F18       dword_404F18
 0001:00003F58       dword_404F58
 0001:00003F9C       dword_404F9C
 0001:00003FE0       dword_404FE0
 0001:00004024       dword_405024
 0001:0000406C       dword_40506C
 0001:000040AC       dword_4050AC
 0001:000040F0       dword_4050F0
 0001:00004130       dword_405130
 0001:00004174       dword_405174
 0001:00004188       sub_405188
 0001:000041A0       sub_4051A0
 0001:000041C4       Sysutils::AllocMem(uint)
 0001:000041E4       sub_4051E4
 0001:0000420C       sub_40520C
 0001:00004240       Sysutils::CompareText(System::AnsiString,System::AnsiString)
 0001:0000424E       loc_40524E
 0001:00004255       loc_405255
 0001:0000425D       loc_40525D
 0001:0000425F       loc_40525F
 0001:00004273       loc_405273
 0001:00004283       loc_405283
 0001:0000428D       loc_40528D
 0001:00004294       Sysutils::AnsiCompareText(System::AnsiString,System::AnsiString)
 0001:000042CC       Sysutils::IsValidIdent(System::AnsiString)
 0001:000042F0       loc_4052F0
 0001:00004302       loc_405302
 0001:00004323       loc_405323
 0001:00004327       loc_405327
 0001:00004329       loc_405329
 0001:00004330       Sysutils::IntToStr(int)
 0001:0000435C       dword_40535C
 0001:00004360       Sysutils::StrToIntDef(System::AnsiString,int)
 0001:00004373       loc_405373
 0001:00004378       sub_405378
 0001:000043B0       Sysutils::FmtLoadStr(int,System::TVarRec *,int)
 0001:000043F1       loc_4053F1
 0001:000043FA       loc_4053FA
 0001:00004401       loc_405401
 0001:0000440C       Sysutils::FileOpen(System::AnsiString,uint)
 0001:0000444C       @FileCreate
 0001:00004470       sub_405470
 0001:00004494       loc_405494
 0001:0000449C       sub_40549C
 0001:000044C0       loc_4054C0
 0001:000044C8       sub_4054C8
 0001:000044D4       sub_4054D4
 0001:000044DC       Sysutils::StrLen(char *)
 0001:000044F4       Sysutils::StrEnd(char *)
 0001:00004508       @StrMove
 0001:00004525       loc_405525
 0001:00004541       loc_405541
 0001:00004544       Sysutils::StrCopy(char *,char *)
 0001:0000456C       Sysutils::StrECopy(char *,char *)
 0001:00004598       Sysutils::StrLCopy(char *,char *,uint)
 0001:000045AC       loc_4055AC
 0001:000045CC       @StrPCopy
 0001:000045EC       Sysutils::StrComp(char *,char *)
 0001:00004610       Sysutils::StrScan(char *,char)
 0001:0000462E       loc_40562E
 0001:00004630       Sysutils::StrRScan(char *,char)
 0001:0000464E       loc_40564E
 0001:00004654       Sysutils::StrAlloc(uint)
 0001:00004668       Sysutils::StrBufSize(char *)
 0001:00004674       Sysutils::StrNew(char *)
 0001:00004681       loc_405681
 0001:000046A0       Sysutils::StrDispose(char *)
 0001:000046AE       locret_4056AE
 0001:000046B0       sub_4056B0
 0001:000046C3       loc_4056C3
 0001:000046F4       SysUtils::_16595
 0001:00004708       sub_405708
 0001:00004714       sub_405714
 0001:0000472F       loc_40572F
 0001:00004733       loc_405733
 0001:0000473D       loc_40573D
 0001:00004741       loc_405741
 0001:0000474B       loc_40574B
 0001:0000475B       loc_40575B
 0001:00004768       loc_405768
 0001:0000477C       loc_40577C
 0001:00004793       loc_405793
 0001:000047AA       loc_4057AA
 0001:000047B8       loc_4057B8
 0001:000047BA       loc_4057BA
 0001:000047C4       loc_4057C4
 0001:000047D2       loc_4057D2
 0001:000047E4       loc_4057E4
 0001:000047ED       sub_4057ED
 0001:000047F4       loc_4057F4
 0001:00004810       loc_405810
 0001:00004816       loc_405816
 0001:00004830       loc_405830
 0001:00004835       locret_405835
 0001:00004836       sub_405836
 0001:0000485D       off_40585D
 0001:00004895       loc_405895
 0001:00004897       loc_405897
 0001:000048A4       loc_4058A4
 0001:000048BA       loc_4058BA
 0001:000048CC       sub_4058CC
 0001:000048D1       loc_4058D1
 0001:000048D4       loc_4058D4
 0001:000048E3       loc_4058E3
 0001:000048F8       loc_4058F8
 0001:00004900       loc_405900
 0001:00004906       locret_405906
 0001:00004907       loc_405907
 0001:00004912       loc_405912
 0001:00004930       loc_405930
 0001:00004933       loc_405933
 0001:00004944       loc_405944
 0001:0000494F       loc_40594F
 0001:00004956       loc_405956
 0001:0000495C       loc_40595C
 0001:00004960       loc_405960
 0001:0000497A       loc_40597A
 0001:00004980       loc_405980
 0001:0000499A       loc_40599A
 0001:0000499E       loc_40599E
 0001:000049A0       loc_4059A0
 0001:000049C9       loc_4059C9
 0001:000049E8       loc_4059E8
 0001:000049FA       loc_4059FA
 0001:00004A10       loc_405A10
 0001:00004A1C       Sysutils::StrFmt(char *,char *,System::TVarRec *,int)
 0001:00004A50       Sysutils::Format(System::AnsiString,System::TVarRec *,int)
 0001:00004A64       sub_405A64
 0001:00004AAD       loc_405AAD
 0001:00004AC8       Sysutils::GetLocaleStr(int,int,System::AnsiString)
 0001:00004B01       loc_405B01
 0001:00004B0A       loc_405B0A
 0001:00004B14       Sysutils::GetLocaleChar(int,int,char)
 0001:00004B35       loc_405B35
 0001:00004B37       loc_405B37
 0001:00004B3C       sub_405B3C
 0001:00004B72       loc_405B72
 0001:00004BE3       loc_405BE3
 0001:00004C64       loc_405C64
 0001:00004C72       loc_405C72
 0001:00004C79       loc_405C79
 0001:00004C80       sub_405C80
 0001:00004E32       loc_405E32
 0001:00004E3F       loc_405E3F
 0001:00004E71       loc_405E71
 0001:00004E79       loc_405E79
 0001:00004EBA       loc_405EBA
 0001:00004EC8       loc_405EC8
 0001:00004ECF       loc_405ECF
 0001:00004EE0       dword_405EE0
 0001:00004EEC       aMDYy
 0001:00004EFC       aMmmmDYyyy
 0001:00004F14       dword_405F14
 0001:00004F20       dword_405F20
 0001:00004F2C       unknown_libname_284
 0001:00004F38       dword_405F38
 0001:00004F44       aAmpm
 0001:00004F54       dword_405F54
 0001:00004F60       aMmSs
 0001:00004F68       System::ExceptObject(void)
 0001:00004F85       loc_405F85
 0001:00004F88       System::ExceptAddr(void)
 0001:00004FA5       loc_405FA5
 0001:00004FA8       sub_405FA8
 0001:00004FB1       locret_405FB1
 0001:00004FB4       sub_405FB4
 0001:00005032       loc_406032
 0001:0000510A       loc_40610A
 0001:00005123       loc_406123
 0001:00005130       dword_406130
 0001:00005134       dword_406134
 0001:00005138       sub_406138
 0001:00005147       loc_406147
 0001:00005165       loc_406165
 0001:0000516C       Sysutils::Exception::Exception(System::AnsiString,System::TVarRec *,int,int)
 0001:00005180       loc_406180
 0001:000051B6       loc_4061B6
 0001:000051BF       loc_4061BF
 0001:000051C6       loc_4061C6
 0001:000051D4       loc_4061D4
 0001:000051DC       sub_4061DC
 0001:000051F2       loc_4061F2
 0001:0000523A       loc_40623A
 0001:00005248       loc_406248
 0001:0000524F       loc_40624F
 0001:0000525D       loc_40625D
 0001:00005268       sub_406268
 0001:00005271       locret_406271
 0001:00005274       nullsub_4
 0001:00005278       sub_406278
 0001:00005280       loc_406280
 0001:00005281       loc_406281
 0001:0000529A       loc_40629A
 0001:000052B6       loc_4062B6
 0001:000052DF       loc_4062DF
 0001:00005300       sub_406300
 0001:00005310       loc_406310
 0001:00005317       loc_406317
 0001:0000532C       loc_40632C
 0001:00005331       loc_406331
 0001:0000533C       sub_40633C
 0001:00005363       loc_406363
 0001:00005371       loc_406371
 0001:00005389       loc_406389
 0001:00005397       loc_406397
 0001:0000539A       loc_40639A
 0001:0000539D       loc_40639D
 0001:000053A0       loc_4063A0
 0001:000053A3       loc_4063A3
 0001:000053A6       loc_4063A6
 0001:000053A9       loc_4063A9
 0001:000053AC       loc_4063AC
 0001:000053AF       loc_4063AF
 0001:000053B2       loc_4063B2
 0001:000053B5       loc_4063B5
 0001:000053B8       loc_4063B8
 0001:000053BC       SysUtils::_16704
 0001:000053D0       sub_4063D0
 0001:0000540C       loc_40640C
 0001:00005423       loc_406423
 0001:00005430       loc_406430
 0001:00005435       loc_406435
 0001:00005478       loc_406478
 0001:0000549D       loc_40649D
 0001:000054AA       loc_4064AA
 0001:000054B3       loc_4064B3
 0001:000054BA       loc_4064BA
 0001:000054C4       SysUtils::_16886
 0001:000054D4       sub_4064D4
 0001:00005520       sub_406520
 0001:00005540       loc_406540
 0001:00005548       dword_406548
 0001:00005558       tbyte_406558
 0001:00005562       word_406562
 0001:00005564       loc_406564
 0001:0000556A       FLOATTOTEXT
 0001:0000558D       loc_40658D
 0001:00005597       loc_406597
 0001:000055A9       loc_4065A9
 0001:000055D3       loc_4065D3
 0001:000055ED       loc_4065ED
 0001:000055EF       loc_4065EF
 0001:000055F6       loc_4065F6
 0001:00005604       off_406604
 0001:00005618       sub_406618
 0001:00005620       locret_406620
 0001:00005621       sub_406621
 0001:0000562A       locret_40662A
 0001:0000562B       sub_40662B
 0001:0000565A       loc_40665A
 0001:00005660       loc_406660
 0001:00005676       loc_406676
 0001:0000567E       loc_40667E
 0001:00005682       loc_406682
 0001:0000568C       locret_40668C
 0001:0000568D       sub_40668D
 0001:000056A3       loc_4066A3
 0001:000056B7       loc_4066B7
 0001:000056C1       sub_4066C1
 0001:000056CA       loc_4066CA
 0001:000056D4       loc_4066D4
 0001:000056DA       loc_4066DA
 0001:000056DB       loc_4066DB
 0001:000056DF       loc_4066DF
 0001:000056F6       loc_4066F6
 0001:00005700       sub_406700
 0001:00005705       sub_406705
 0001:00005712       loc_406712
 0001:0000571F       loc_40671F
 0001:00005731       loc_406731
 0001:00005747       loc_406747
 0001:00005755       loc_406755
 0001:0000575C       loc_40675C
 0001:00005765       locret_406765
 0001:00005766       sub_406766
 0001:00005784       loc_406784
 0001:0000578A       loc_40678A
 0001:00005798       loc_406798
 0001:000057AB       loc_4067AB
 0001:000057B2       loc_4067B2
 0001:000057B7       loc_4067B7
 0001:000057BC       locret_4067BC
 0001:000057BD       sub_4067BD
 0001:000057CD       loc_4067CD
 0001:000057CF       sub_4067CF
 0001:00005833       FLOATTOTEXTFMT
 0001:0000585C       loc_40685C
 0001:0000586E       loc_40686E
 0001:00005892       loc_406892
 0001:000058C1       loc_4068C1
 0001:000058D5       loc_4068D5
 0001:000058F1       loc_4068F1
 0001:000058F6       loc_4068F6
 0001:000058FF       sub_4068FF
 0001:00005904       loc_406904
 0001:00005921       loc_406921
 0001:0000592C       locret_40692C
 0001:0000592D       loc_40692D
 0001:0000592F       loc_40692F
 0001:0000593A       sub_40693A
 0001:00005954       loc_406954
 0001:00005955       loc_406955
 0001:0000597F       loc_40697F
 0001:00005982       loc_406982
 0001:00005988       loc_406988
 0001:0000598D       loc_40698D
 0001:00005998       loc_406998
 0001:0000599E       loc_40699E
 0001:000059A0       loc_4069A0
 0001:000059AB       loc_4069AB
 0001:000059B4       loc_4069B4
 0001:000059B8       loc_4069B8
 0001:000059BF       loc_4069BF
 0001:000059CB       loc_4069CB
 0001:000059D4       loc_4069D4
 0001:000059E0       loc_4069E0
 0001:000059E5       sub_4069E5
 0001:000059F2       loc_4069F2
 0001:000059FE       loc_4069FE
 0001:00005A05       loc_406A05
 0001:00005A22       loc_406A22
 0001:00005A4B       loc_406A4B
 0001:00005A4E       loc_406A4E
 0001:00005A55       loc_406A55
 0001:00005A57       loc_406A57
 0001:00005A63       loc_406A63
 0001:00005A71       loc_406A71
 0001:00005A76       loc_406A76
 0001:00005A87       loc_406A87
 0001:00005A9A       loc_406A9A
 0001:00005AA0       sub_406AA0
 0001:00005AA8       loc_406AA8
 0001:00005AB4       loc_406AB4
 0001:00005AC1       sub_406AC1
 0001:00005AD1       loc_406AD1
 0001:00005AD3       loc_406AD3
 0001:00005AE4       loc_406AE4
 0001:00005B02       loc_406B02
 0001:00005B06       FLOATTODECIMAL
 0001:00005B1F       loc_406B1F
 0001:00005B24       loc_406B24
 0001:00005B2D       sub_406B2D
 0001:00005B4A       loc_406B4A
 0001:00005B4C       loc_406B4C
 0001:00005B55       loc_406B55
 0001:00005B98       loc_406B98
 0001:00005BA4       loc_406BA4
 0001:00005BC8       loc_406BC8
 0001:00005BD0       loc_406BD0
 0001:00005BDC       loc_406BDC
 0001:00005BF1       loc_406BF1
 0001:00005BFC       loc_406BFC
 0001:00005C01       loc_406C01
 0001:00005C10       loc_406C10
 0001:00005C17       loc_406C17
 0001:00005C22       sub_406C22
 0001:00005C3C       loc_406C3C
 0001:00005C47       loc_406C47
 0001:00005C51       loc_406C51
 0001:00005C6B       loc_406C6B
 0001:00005C86       loc_406C86
 0001:00005C96       loc_406C96
 0001:00005CAC       loc_406CAC
 0001:00005CB6       loc_406CB6
 0001:00005CBF       loc_406CBF
 0001:00005CC6       loc_406CC6
 0001:00005CD4       loc_406CD4
 0001:00005CE5       loc_406CE5
 0001:00005CEC       loc_406CEC
 0001:00005CF3       TEXTTOFLOAT
 0001:00005D22       loc_406D22
 0001:00005D23       loc_406D23
 0001:00005D3E       loc_406D3E
 0001:00005D54       loc_406D54
 0001:00005D68       loc_406D68
 0001:00005D74       loc_406D74
 0001:00005D7D       loc_406D7D
 0001:00005D7F       loc_406D7F
 0001:00005D8C       loc_406D8C
 0001:00005D8E       loc_406D8E
 0001:00005D90       loc_406D90
 0001:00005D9E       sub_406D9E
 0001:00005DA7       loc_406DA7
 0001:00005DA9       sub_406DA9
 0001:00005DAD       loc_406DAD
 0001:00005DC3       loc_406DC3
 0001:00005DC5       sub_406DC5
 0001:00005DD5       loc_406DD5
 0001:00005DD6       loc_406DD6
 0001:00005DEC       loc_406DEC
 0001:00005DF3       locret_406DF3
 0001:00005DF4       sub_406DF4
 0001:00005E29       loc_406E29
 0001:00005E2A       loc_406E2A
 0001:00005E31       loc_406E31
 0001:00005E38       Typinfo::GetTypeData(Typinfo::TTypeInfo *)
 0001:00005E44       sub_406E44
 0001:00005E65       loc_406E65
 0001:00005E71       loc_406E71
 0001:00005E80       sub_406E80
 0001:00005E9D       loc_406E9D
 0001:00005EA4       loc_406EA4
 0001:00005EB5       loc_406EB5
 0001:00005EB7       loc_406EB7
 0001:00005EC0       loc_406EC0
 0001:00005EC3       loc_406EC3
 0001:00005EC8       sub_406EC8
 0001:00005EDC       loc_406EDC
 0001:00005EF5       loc_406EF5
 0001:00005F00       loc_406F00
 0001:00005F09       loc_406F09
 0001:00005F12       loc_406F12
 0001:00005F1C       loc_406F1C
 0001:00005F1E       loc_406F1E
 0001:00005F2E       loc_406F2E
 0001:00005F34       sub_406F34
 0001:00005F49       loc_406F49
 0001:00005F60       loc_406F60
 0001:00005F70       loc_406F70
 0001:00005F77       loc_406F77
 0001:00005F84       Typinfo::IsStoredProp(System::TObject *,Typinfo::TPropInfo *)
 0001:00005FA2       loc_406FA2
 0001:00005FA5       loc_406FA5
 0001:00005FAE       loc_406FAE
 0001:00005FB4       sub_406FB4
 0001:00005FC8       loc_406FC8
 0001:00005FDF       loc_406FDF
 0001:00005FE3       loc_406FE3
 0001:00005FFC       loc_406FFC
 0001:00006016       loc_407016
 0001:00006020       loc_407020
 0001:00006024       sub_407024
 0001:0000603B       loc_40703B
 0001:00006048       loc_407048
 0001:0000605C       loc_40705C
 0001:00006060       loc_407060
 0001:00006079       loc_407079
 0001:00006080       TypInfo::_16481
 0001:00006094       loc_407094
 0001:000060A8       loc_4070A8
 0001:000060AC       loc_4070AC
 0001:000060BD       loc_4070BD
 0001:000060C4       sub_4070C4
 0001:000060D5       loc_4070D5
 0001:000060EA       loc_4070EA
 0001:000060EF       loc_4070EF
 0001:0000610B       loc_40710B
 0001:00006114       TypInfo::_16415
 0001:00006128       unknown_libname_425
 0001:00006139       loc_407139
 0001:0000614E       loc_40714E
 0001:00006153       loc_407153
 0001:00006168       unknown_libname_426
 0001:00006179       loc_407179
 0001:0000618E       loc_40718E
 0001:00006193       loc_407193
 0001:000061A8       sub_4071A8
 0001:000061D1       loc_4071D1
 0001:000061D8       loc_4071D8
 0001:000061E0       sub_4071E0
 0001:00006211       loc_407211
 0001:0000621C       loc_40721C
 0001:00006228       @GetFloatProp
 0001:00006239       loc_407239
 0001:00006244       off_407244
 0001:00006258       sub_407258
 0001:0000625B       sub_40725B
 0001:0000625E       sub_40725E
 0001:00006261       sub_407261
 0001:00006264       sub_407264
 0001:0000626D       loc_40726D
 0001:00006288       sub_407288
 0001:000062C7       loc_4072C7
 0001:000062CB       dword_4072CB
 0001:000062DF       off_4072DF
 0001:000062F3       sub_4072F3
 0001:000062F6       sub_4072F6
 0001:000062F9       sub_4072F9
 0001:000062FC       sub_4072FC
 0001:000062FF       sub_4072FF
 0001:00006308       loc_407308
 0001:00006317       loc_407317
 0001:00006320       Typinfo::GetMethodProp(System::TObject *,Typinfo::TPropInfo *)
 0001:00006331       loc_407331
 0001:00006346       loc_407346
 0001:0000634B       loc_40734B
 0001:00006360       Typinfo::SetMethodProp(System::TObject *,Typinfo::TPropInfo *,System::TMethod &)
 0001:0000637D       loc_40737D
 0001:00006381       loc_407381
 0001:00006398       unknown_libname_427
 0001:000063B4       dword_4073B4
 0001:00006444       dword_407444
 0001:00006488       dword_407488
 0001:000064CC       dword_4074CC
 0001:0000650C       dword_40750C
 0001:0000654C       dword_40754C
 0001:0000658C       dword_40758C
 0001:000065CC       dword_4075CC
 0001:00006610       dword_407610
 0001:00006654       dword_407654
 0001:00006694       dword_407694
 0001:000066D4       dword_4076D4
 0001:00006718       off_407718
 0001:00006720       dword_407720
 0001:0000675C       dword_40775C
 0001:00006798       off_407798
 0001:000067A4       dword_4077A4
 0001:000067B0       tiTPersistent
 0001:000067C8       aClasses
 0001:00006808       off_407808
 0001:00006818       dword_407818
 0001:00006824       unknown_libname_428
 0001:0000683C       aClasses_0
 0001:0000687C       off_40787C
 0001:000068E4       dword_4078E4
 0001:000068F0       tiTStrings
 0001:00006910       sub_407910
 0001:00006918       sub_407918
 0001:00006920       sub_407920
 0001:00006928       sub_407928
 0001:00006930       sub_407930
 0001:00006938       byte_407938
 0001:0000698C       off_40798C
 0001:00006A04       dword_407A04
 0001:00006A10       tiTStringList
 0001:00006A28       aClasses_1
 0001:00006A68       off_407A68
 0001:00006A74       dword_407A74
 0001:00006A7C       sub_407A7C
 0001:00006A84       sub_407A84
 0001:00006A8C       sub_407A8C
 0001:00006AC8       off_407AC8
 0001:00006AD4       dword_407AD4
 0001:00006B18       off_407B18
 0001:00006B24       dword_407B24
 0001:00006B4C       unknown_libname_291
 0001:00006B64       off_407B64
 0001:00006B70       unk_407B70
 0001:00006B71       aTcustommemorys
 0001:00006BB8       off_407BB8
 0001:00006BC8       dword_407BC8
 0001:00006C0C       off_407C0C
 0001:00006C18       dword_407C18
 0001:00006C44       unknown_libname_292
 0001:00006C5C       off_407C5C
 0001:00006C68       dword_407C68
 0001:00006C70       sub_407C70
 0001:00006C78       sub_407C78
 0001:00006C80       sub_407C80
 0001:00006CBC       off_407CBC
 0001:00006CD4       dword_407CD4
 0001:00006CE6       word_407CE6
 0001:00006D24       off_407D24
 0001:00006D34       dword_407D34
 0001:00006D46       word_407D46
 0001:00006D48       dword_407D48
 0001:00006D94       off_407D94
 0001:00006DBC       dword_407DBC
 0001:00006DCE       word_407DCE
 0001:00006E06       word_407E06
 0001:00006E14       tiTComponent
 0001:00006E74       Classes::Point(int,int)
 0001:00006E7C       @SmallPoint
 0001:00006E8C       Classes::Rect(int,int,int,int)
 0001:00006EA8       Classes::Bounds(int,int,int,int)
 0001:00006EC4       sub_407EC4
 0001:00006ECE       locret_407ECE
 0001:00006ED0       sub_407ED0
 0001:00006F29       loc_407F29
 0001:00006F32       loc_407F32
 0001:00006F39       loc_407F39
 0001:00006F40       @GetClass
 0001:00006F56       loc_407F56
 0001:00006F75       loc_407F75
 0001:00006F97       loc_407F97
 0001:00006F99       loc_407F99
 0001:00006FA0       Classes::FindClass(System::AnsiString)
 0001:00006FB8       loc_407FB8
 0001:00006FC0       Classes::_16530
 0001:00006FEC       loc_407FEC
 0001:0000700A       loc_40800A
 0001:00007041       loc_408041
 0001:0000704C       loc_40804C
 0001:00007060       loc_408060
 0001:0000706D       loc_40806D
 0001:00007076       loc_408076
 0001:0000707D       loc_40807D
 0001:00007088       sub_408088
 0001:000070B0       loc_4080B0
 0001:00007106       loc_408106
 0001:00007120       loc_408120
 0001:0000712C       loc_40812C
 0001:00007139       loc_408139
 0001:00007142       loc_408142
 0001:00007149       loc_408149
 0001:00007150       unknown_libname_293
 0001:00007157       loc_408157
 0001:00007169       loc_408169
 0001:00007176       loc_408176
 0001:0000719C       unknown_libname_294
 0001:000071B4       dword_4081B4
 0001:000071C0       sub_4081C0
 0001:000071CF       loc_4081CF
 0001:000071EC       loc_4081EC
 0001:000071F0       sub_4081F0
 0001:0000721C       sub_40821C
 0001:0000728B       loc_40828B
 0001:00007294       loc_408294
 0001:0000729B       loc_40829B
 0001:0000729D       loc_40829D
 0001:000072A4       sub_4082A4
 0001:000072C8       sub_4082C8
 0001:000072DA       loc_4082DA
 0001:000072EF       loc_4082EF
 0001:000072F4       @EndGlobalLoading
 0001:00007324       sub_408324
 0001:00007395       loc_408395
 0001:000073A2       loc_4083A2
 0001:000073AB       loc_4083AB
 0001:000073B2       loc_4083B2
 0001:000073BC       @InitInheritedComponent
 0001:000073FF       loc_4083FF
 0001:00007405       loc_408405
 0001:0000740C       loc_40840C
 0001:00007414       sub_408414
 0001:0000742F       loc_40842F
 0001:00007434       ImgList::_16460
 0001:00007467       loc_408467
 0001:0000746B       loc_40846B
 0001:0000746D       loc_40846D
 0001:00007474       sub_408474
 0001:000074B6       loc_4084B6
 0001:000074BF       loc_4084BF
 0001:000074C6       loc_4084C6
 0001:000074CC       Classes::CollectionsEqual(Classes::TCollection *,Classes::TCollection *)
 0001:00007576       loc_408576
 0001:0000757F       loc_40857F
 0001:00007586       loc_408586
 0001:00007593       loc_408593
 0001:0000759C       loc_40859C
 0001:000075A3       loc_4085A3
 0001:000075B0       sub_4085B0
 0001:000075C8       sub_4085C8
 0001:000075D4       sub_4085D4
 0001:000075EC       loc_4085EC
 0001:000075F4       sub_4085F4
 0001:0000760A       loc_40860A
 0001:0000761C       Classes::TList::Clear(void)
 0001:00007634       sub_408634
 0001:00007643       loc_408643
 0001:00007649       loc_408649
 0001:0000766C       loc_40866C
 0001:00007670       loc_408670
 0001:00007678       sub_408678
 0001:0000768A       loc_40868A
 0001:00007690       sub_408690
 0001:0000769F       loc_40869F
 0001:000076A5       loc_4086A5
 0001:000076B0       sub_4086B0
 0001:000076BF       loc_4086BF
 0001:000076CB       loc_4086CB
 0001:000076D0       loc_4086D0
 0001:000076D8       Classes::TList::IndexOf(void *)
 0001:000076DD       loc_4086DD
 0001:000076DE       loc_4086DE
 0001:000076EB       loc_4086EB
 0001:000076F3       loc_4086F3
 0001:000076F8       sub_4086F8
 0001:0000770A       loc_40870A
 0001:00007710       loc_408710
 0001:0000771F       loc_40871F
 0001:0000773F       loc_40873F
 0001:0000774C       Classes::TList::Last(void)
 0001:00007758       sub_408758
 0001:0000776A       loc_40876A
 0001:00007770       loc_408770
 0001:0000777C       Classes::TList::Remove(void *)
 0001:00007797       loc_408797
 0001:0000779C       sub_40879C
 0001:000077AF       loc_4087AF
 0001:000077B5       loc_4087B5
 0001:000077CA       loc_4087CA
 0001:000077D0       sub_4087D0
 0001:000077E2       loc_4087E2
 0001:000077E8       loc_4087E8
 0001:000077F6       loc_4087F6
 0001:00007814       loc_408814
 0001:0000781C       sub_40881C
 0001:0000783F       loc_40883F
 0001:00007844       sub_408844
 0001:0000785C       Classes::_16735
 0001:00007864       loc_408864
 0001:00007868       Classes::TBits::SetSize(int)
 0001:00007885       loc_408885
 0001:00007890       loc_408890
 0001:000078A6       loc_4088A6
 0001:000078D1       loc_4088D1
 0001:000078F1       loc_4088F1
 0001:000078FB       loc_4088FB
 0001:00007901       loc_408901
 0001:00007904       loc_408904
 0001:0000790C       Classes::TBits::SetBit(int,bool)
 0001:00007911       loc_408911
 0001:0000791C       loc_40891C
 0001:00007920       loc_408920
 0001:00007938       Classes::TBits::OpenBit(void)
 0001:0000794C       loc_40894C
 0001:0000795A       loc_40895A
 0001:00007970       loc_408970
 0001:0000797D       loc_40897D
 0001:00007996       loc_408996
 0001:0000799B       loc_40899B
 0001:000079A1       loc_4089A1
 0001:000079A4       loc_4089A4
 0001:000079AC       dword_4089AC
 0001:000079B0       Classes::TPersistent::Assign(Classes::TPersistent *)
 0001:000079BA       loc_4089BA
 0001:000079C4       sub_4089C4
 0001:00007A08       loc_408A08
 0001:00007A15       loc_408A15
 0001:00007A71       loc_408A71
 0001:00007A7A       loc_408A7A
 0001:00007A81       loc_408A81
 0001:00007A90       dword_408A90
 0001:00007A94       sub_408A94
 0001:00007A9C       nullsub_5
 0001:00007AA0       sub_408AA0
 0001:00007ABA       loc_408ABA
 0001:00007ACD       loc_408ACD
 0001:00007AD4       sub_408AD4
 0001:00007AE0       sub_408AE0
 0001:00007B2B       loc_408B2B
 0001:00007B47       loc_408B47
 0001:00007B54       loc_408B54
 0001:00007B5D       loc_408B5D
 0001:00007B64       loc_408B64
 0001:00007B6E       loc_408B6E
 0001:00007B74       sub_408B74
 0001:00007B78       sub_408B78
 0001:00007B85       locret_408B85
 0001:00007B88       TCollection::Clear
 0001:00007BB4       loc_408BB4
 0001:00007BC0       loc_408BC0
 0001:00007BD9       loc_408BD9
 0001:00007BE2       loc_408BE2
 0001:00007BE9       loc_408BE9
 0001:00007BF0       Classes::TCollection::EndUpdate(void)
 0001:00007BFC       TCollection::GetCount
 0001:00007C04       sub_408C04
 0001:00007C10       nullsub_6
 0001:00007C14       sub_408C14
 0001:00007C38       sub_408C38
 0001:00007C5C       Classes::TStrings::AddStrings(Classes::TStrings *)
 0001:00007CA6       loc_408CA6
 0001:00007CD0       loc_408CD0
 0001:00007CDD       loc_408CDD
 0001:00007CE6       loc_408CE6
 0001:00007CED       loc_408CED
 0001:00007CFA       loc_408CFA
 0001:00007CFD       loc_408CFD
 0001:00007D03       loc_408D03
 0001:00007D0A       loc_408D0A
 0001:00007D14       sub_408D14
 0001:00007D63       loc_408D63
 0001:00007D6C       loc_408D6C
 0001:00007D71       loc_408D71
 0001:00007D73       loc_408D73
 0001:00007D7D       loc_408D7D
 0001:00007D84       sub_408D84
 0001:00007D96       loc_408D96
 0001:00007D9C       sub_408D9C
 0001:00007DDA       loc_408DDA
 0001:00007DEA       loc_408DEA
 0001:00007DF0       Classes::TStrings::DefineProperties(Classes::TFiler *)
 0001:00007E34       aStrings
 0001:00007E3C       sub_408E3C
 0001:00007E4C       locret_408E4C
 0001:00007E50       sub_408E50
 0001:00007E99       loc_408E99
 0001:00007EC6       loc_408EC6
 0001:00007ECA       loc_408ECA
 0001:00007ED7       loc_408ED7
 0001:00007EE5       loc_408EE5
 0001:00007EEC       loc_408EEC
 0001:00007EF8       sub_408EF8
 0001:00007F8B       loc_408F8B
 0001:00007F99       loc_408F99
 0001:00007FA0       loc_408FA0
 0001:00007FA8       sub_408FA8
 0001:00007FAC       sub_408FAC
 0001:00007FEA       loc_408FEA
 0001:00007FF3       loc_408FF3
 0001:00007FFA       loc_408FFA
 0001:00008004       sub_409004
 0001:00008046       loc_409046
 0001:00008067       loc_409067
 0001:00008088       loc_409088
 0001:000080B2       loc_4090B2
 0001:000080C0       loc_4090C0
 0001:000080CD       loc_4090CD
 0001:000080DB       loc_4090DB
 0001:000080E2       loc_4090E2
 0001:000080EC       sub_4090EC
 0001:00008120       loc_409120
 0001:00008140       loc_409140
 0001:00008143       loc_409143
 0001:00008150       loc_409150
 0001:00008159       loc_409159
 0001:00008160       loc_409160
 0001:0000816C       sub_40916C
 0001:0000819C       sub_40919C
 0001:000081DB       loc_4091DB
 0001:000081E4       loc_4091E4
 0001:000081EB       loc_4091EB
 0001:000081F0       Dbtables::TStoredProc::SetPrepared(bool)
 0001:00008268       loc_409268
 0001:00008271       loc_409271
 0001:00008278       loc_409278
 0001:00008285       loc_409285
 0001:0000828E       loc_40928E
 0001:00008295       loc_409295
 0001:0000829C       sub_40929C
 0001:000082F2       loc_4092F2
 0001:000082FF       loc_4092FF
 0001:00008308       loc_409308
 0001:0000830F       loc_40930F
 0001:00008318       sub_409318
 0001:00008348       nullsub_7
 0001:0000834C       sub_40934C
 0001:00008376       loc_409376
 0001:0000838A       loc_40938A
 0001:000083A9       loc_4093A9
 0001:000083B2       loc_4093B2
 0001:000083B9       loc_4093B9
 0001:000083C0       sub_4093C0
 0001:00008402       loc_409402
 0001:0000840B       loc_40940B
 0001:00008412       loc_409412
 0001:00008418       sub_409418
 0001:00008464       loc_409464
 0001:0000846D       loc_40946D
 0001:00008474       loc_409474
 0001:0000847C       sub_40947C
 0001:000084B7       loc_4094B7
 0001:000084C0       loc_4094C0
 0001:000084C7       loc_4094C7
 0001:000084D0       Dbtables::TStoredProc::SetPrepared(bool)
 0001:00008515       loc_409515
 0001:00008519       loc_409519
 0001:0000851A       loc_40951A
 0001:0000852A       loc_40952A
 0001:00008548       loc_409548
 0001:0000854E       loc_40954E
 0001:00008553       loc_409553
 0001:00008560       loc_409560
 0001:00008569       loc_409569
 0001:00008570       loc_409570
 0001:0000857D       loc_40957D
 0001:00008586       loc_409586
 0001:0000858D       loc_40958D
 0001:00008594       nullsub_8
 0001:00008598       Classes::TStrings::WriteData(Classes::TWriter *)
 0001:000085D4       loc_4095D4
 0001:000085F0       loc_4095F0
 0001:00008605       loc_409605
 0001:0000860E       loc_40960E
 0001:00008615       loc_409615
 0001:0000861C       sub_40961C
 0001:00008649       loc_409649
 0001:00008662       loc_409662
 0001:00008668       sub_409668
 0001:0000867E       loc_40967E
 0001:0000869A       loc_40969A
 0001:000086A4       loc_4096A4
 0001:000086B0       loc_4096B0
 0001:000086B8       sub_4096B8
 0001:000086CF       locret_4096CF
 0001:000086D0       sub_4096D0
 0001:000086E7       locret_4096E7
 0001:000086E8       sub_4096E8
 0001:0000871D       loc_40971D
 0001:00008720       sub_409720
 0001:0000872F       loc_40972F
 0001:00008734       loc_409734
 0001:0000876E       loc_40976E
 0001:00008778       sub_409778
 0001:00008793       loc_409793
 0001:00008798       loc_409798
 0001:000087B8       sub_4097B8
 0001:000087DC       sub_4097DC
 0001:000087FB       loc_4097FB
 0001:00008817       loc_409817
 0001:0000882B       loc_40982B
 0001:0000882F       loc_40982F
 0001:00008844       sub_409844
 0001:00008856       loc_409856
 0001:0000885B       loc_40985B
 0001:0000886C       sub_40986C
 0001:00008870       sub_409870
 0001:0000887F       loc_40987F
 0001:00008884       loc_409884
 0001:00008890       sub_409890
 0001:0000889F       loc_40989F
 0001:000088AB       loc_4098AB
 0001:000088B0       loc_4098B0
 0001:000088B8       sub_4098B8
 0001:000088D3       loc_4098D3
 0001:000088E9       loc_4098E9
 0001:000088F0       sub_4098F0
 0001:00008909       loc_409909
 0001:00008912       loc_409912
 0001:00008917       loc_409917
 0001:00008928       sub_409928
 0001:00008947       loc_409947
 0001:00008967       loc_409967
 0001:00008990       sub_409990
 0001:000089A9       loc_4099A9
 0001:000089B2       loc_4099B2
 0001:000089B7       loc_4099B7
 0001:000089D8       sub_4099D8
 0001:000089EA       loc_4099EA
 0001:000089EF       loc_4099EF
 0001:00008A08       sub_409A08
 0001:00008A2C       loc_409A2C
 0001:00008A4A       loc_409A4A
 0001:00008A4B       loc_409A4B
 0001:00008A5F       loc_409A5F
 0001:00008A60       loc_409A60
 0001:00008A83       loc_409A83
 0001:00008A98       loc_409A98
 0001:00008AAD       loc_409AAD
 0001:00008AB6       loc_409AB6
 0001:00008ABD       loc_409ABD
 0001:00008AC4       sub_409AC4
 0001:00008AE0       sub_409AE0
 0001:00008AEA       loc_409AEA
 0001:00008AF0       sub_409AF0
 0001:00008B1A       loc_409B1A
 0001:00008B1C       sub_409B1C
 0001:00008B2C       sub_409B2C
 0001:00008B38       sub_409B38
 0001:00008B6C       sub_409B6C
 0001:00008B9D       loc_409B9D
 0001:00008BA4       sub_409BA4
 0001:00008BD6       loc_409BD6
 0001:00008BDC       sub_409BDC
 0001:00008C23       loc_409C23
 0001:00008C2C       loc_409C2C
 0001:00008C33       loc_409C33
 0001:00008C3C       sub_409C3C
 0001:00008C4B       locret_409C4B
 0001:00008C4C       sub_409C4C
 0001:00008C5B       locret_409C5B
 0001:00008C5C       Classes::THandleStream::Seek(int,ushort)
 0001:00008C68       sub_409C68
 0001:00008C7D       loc_409C7D
 0001:00008CC6       loc_409CC6
 0001:00008CFC       loc_409CFC
 0001:00008D0C       loc_409D0C
 0001:00008D18       sub_409D18
 0001:00008D2A       loc_409D2A
 0001:00008D35       loc_409D35
 0001:00008D3C       Classes::TCustomMemoryStream::SetPointer(void *,int)
 0001:00008D44       Classes::TCustomMemoryStream::Read(void *,int)
 0001:00008D63       loc_409D63
 0001:00008D74       loc_409D74
 0001:00008D76       loc_409D76
 0001:00008D7C       Classes::TCustomMemoryStream::Seek(int,ushort)
 0001:00008D8B       loc_409D8B
 0001:00008D90       loc_409D90
 0001:00008D95       loc_409D95
 0001:00008D9B       loc_409D9B
 0001:00008DA0       sub_409DA0
 0001:00008DC1       loc_409DC1
 0001:00008DC8       Classes::TMemoryStream::Clear(void)
 0001:00008DE0       sub_409DE0
 0001:00008E08       sub_409E08
 0001:00008E24       sub_409E24
 0001:00008E3C       loc_409E3C
 0001:00008E5A       loc_409E5A
 0001:00008E70       loc_409E70
 0001:00008E82       loc_409E82
 0001:00008E9C       loc_409E9C
 0001:00008EA4       Classes::TMemoryStream::Write(void *,int)
 0001:00008ED4       loc_409ED4
 0001:00008ED7       loc_409ED7
 0001:00008EED       loc_409EED
 0001:00008EEF       loc_409EEF
 0001:00008EF4       Classes::TResourceStream::TResourceStream(uint,int,char *)
 0001:00008F06       loc_409F06
 0001:00008F3A       loc_409F3A
 0001:00008F44       sub_409F44
 0001:00008FA1       loc_409FA1
 0001:00008FAA       loc_409FAA
 0001:00008FB1       loc_409FB1
 0001:00008FB8       Classes::TResourceStream::Initialize(uint,char *,char *)
 0001:00008FE4       loc_409FE4
 0001:00008FFE       loc_409FFE
 0001:00009024       sub_40A024
 0001:0000904F       loc_40A04F
 0001:00009054       sub_40A054
 0001:0000906C       Classes::TFiler::TFiler(Classes::TStream *,int)
 0001:0000907E       loc_40A07E
 0001:000090A3       loc_40A0A3
 0001:000090AC       sub_40A0AC
 0001:000090C1       loc_40A0C1
 0001:000090CC       loc_40A0CC
 0001:00009108       dword_40A108
 0001:00009122       word_40A122
 0001:0000914C       dword_40A14C
 0001:00009164       Classes::_16962
 0001:00009175       loc_40A175
 0001:000091AC       loc_40A1AC
 0001:000091B4       Classes::_16778
 0001:000091E9       loc_40A1E9
 0001:000091EC       Classes::_16968
 0001:00009210       loc_40A210
 0001:0000922E       loc_40A22E
 0001:00009234       sub_40A234
 0001:00009297       loc_40A297
 0001:000092C3       loc_40A2C3
 0001:000092DE       loc_40A2DE
 0001:000092FD       loc_40A2FD
 0001:00009308       loc_40A308
 0001:0000931F       loc_40A31F
 0001:00009328       loc_40A328
 0001:0000932F       loc_40A32F
 0001:0000933D       loc_40A33D
 0001:0000935D       loc_40A35D
 0001:00009361       loc_40A361
 0001:0000936E       loc_40A36E
 0001:00009377       loc_40A377
 0001:0000937E       loc_40A37E
 0001:00009388       @RemoveFixupReferences
 0001:0000939E       loc_40A39E
 0001:000093B5       loc_40A3B5
 0001:000093C7       loc_40A3C7
 0001:000093DA       loc_40A3DA
 0001:000093E0       loc_40A3E0
 0001:000093E8       sub_40A3E8
 0001:00009400       sub_40A400
 0001:0000940C       sub_40A40C
 0001:00009418       Classes::_16790
 0001:0000942A       loc_40A42A
 0001:00009430       sub_40A430
 0001:0000945D       loc_40A45D
 0001:00009464       Classes::TReader::CheckValue(Classes::TValueType)
 0001:00009484       loc_40A484
 0001:00009488       sub_40A488
 0001:000094AF       loc_40A4AF
 0001:000094B8       sub_40A4B8
 0001:000094FF       loc_40A4FF
 0001:00009565       loc_40A565
 0001:0000956E       loc_40A56E
 0001:00009575       loc_40A575
 0001:00009580       loc_40A580
 0001:00009588       Classes::TReader::EndOfList(void)
 0001:0000959C       sub_40A59C
 0001:000095B6       loc_40A5B6
 0001:000095BC       Classes::TReader::FindMethod(Classes::TComponent *,System::AnsiString)
 0001:00009609       loc_40A609
 0001:00009615       loc_40A615
 0001:00009624       sub_40A624
 0001:00009651       loc_40A651
 0001:0000967F       loc_40A67F
 0001:0000968C       loc_40A68C
 0001:00009695       loc_40A695
 0001:0000969C       loc_40A69C
 0001:000096A4       sub_40A6A4
 0001:000096D0       Classes::TReader::FreeFixups(void)
 0001:000096E7       loc_40A6E7
 0001:000096FA       loc_40A6FA
 0001:00009707       loc_40A707
 0001:0000970C       Classes::TReader::NextValue(void)
 0001:0000971C       sub_40A71C
 0001:00009728       Classes::TReader::Read(void *,int)
 0001:00009733       loc_40A733
 0001:00009745       loc_40A745
 0001:0000974B       loc_40A74B
 0001:00009769       loc_40A769
 0001:00009774       sub_40A774
 0001:000097A4       loc_40A7A4
 0001:000097AC       Classes::TReader::ReadBoolean(void)
 0001:000097C0       sub_40A7C0
 0001:0000980F       loc_40A80F
 0001:0000982B       loc_40A82B
 0001:00009834       loc_40A834
 0001:0000983B       loc_40A83B
 0001:00009848       sub_40A848
 0001:0000986E       loc_40A86E
 0001:00009886       loc_40A886
 0001:0000988E       loc_40A88E
 0001:000098AF       loc_40A8AF
 0001:000098B8       loc_40A8B8
 0001:000098CB       loc_40A8CB
 0001:000098EA       loc_40A8EA
 0001:000098F3       loc_40A8F3
 0001:000098FA       loc_40A8FA
 0001:00009900       Classes::_16947
 0001:00009915       loc_40A915
 0001:00009919       loc_40A919
 0001:00009920       sub_40A920
 0001:00009951       loc_40A951
 0001:00009977       loc_40A977
 0001:00009980       Classes::_16814
 0001:000099D0       loc_40A9D0
 0001:000099EE       loc_40A9EE
 0001:000099F3       loc_40A9F3
 0001:000099F8       sub_40A9F8
 0001:00009A45       loc_40AA45
 0001:00009A63       loc_40AA63
 0001:00009A68       loc_40AA68
 0001:00009A70       sub_40AA70
 0001:00009AD3       loc_40AAD3
 0001:00009ADD       loc_40AADD
 0001:00009AFB       loc_40AAFB
 0001:00009B00       loc_40AB00
 0001:00009B08       sub_40AB08
 0001:00009B6C       loc_40AB6C
 0001:00009B73       loc_40AB73
 0001:00009B9F       loc_40AB9F
 0001:00009BAF       loc_40ABAF
 0001:00009BE3       loc_40ABE3
 0001:00009BFB       loc_40ABFB
 0001:00009C13       loc_40AC13
 0001:00009C1D       loc_40AC1D
 0001:00009C2A       loc_40AC2A
 0001:00009C38       loc_40AC38
 0001:00009C3F       loc_40AC3F
 0001:00009C4C       sub_40AC4C
 0001:00009C9E       loc_40AC9E
 0001:00009CA7       loc_40ACA7
 0001:00009CAE       loc_40ACAE
 0001:00009CB8       loc_40ACB8
 0001:00009CBC       Classes::TReader::ReadDataInner(Classes::TComponent *)
 0001:00009CCC       loc_40ACCC
 0001:00009CD6       loc_40ACD6
 0001:00009D40       loc_40AD40
 0001:00009D4A       loc_40AD4A
 0001:00009D6B       loc_40AD6B
 0001:00009D7E       loc_40AD7E
 0001:00009D85       loc_40AD85
 0001:00009D8C       Classes::TReader::ReadFloat(void)
 0001:00009DAD       loc_40ADAD
 0001:00009DC3       loc_40ADC3
 0001:00009DCC       TReader::ReadIdent
 0001:00009DEC       loc_40ADEC
 0001:00009E1F       loc_40AE1F
 0001:00009E2D       loc_40AE2D
 0001:00009E3B       loc_40AE3B
 0001:00009E49       loc_40AE49
 0001:00009E4E       loc_40AE4E
 0001:00009E54       TypInfo::_16408
 0001:00009E5C       aFalse
 0001:00009E6C       aTrue
 0001:00009E7C       dword_40AE7C
 0001:00009E80       Classes::TReader::ReadInteger(void)
 0001:00009E9B       loc_40AE9B
 0001:00009EB5       loc_40AEB5
 0001:00009ECF       loc_40AECF
 0001:00009EDF       loc_40AEDF
 0001:00009EE4       loc_40AEE4
 0001:00009EEC       sub_40AEEC
 0001:00009EF4       sub_40AEF4
 0001:00009EFC       Classes::TReader::ReadPrefix(System::Set<Classes::TFilerFlag,(uchar)0,(uchar)2> &,int &)
 0001:00009F32       loc_40AF32
 0001:00009F38       byte_40AF38
 0001:00009F3C       sub_40AF3C
 0001:00009F8A       loc_40AF8A
 0001:00009FB1       loc_40AFB1
 0001:0000A010       loc_40B010
 0001:0000A019       loc_40B019
 0001:0000A020       loc_40B020
 0001:0000A028       sub_40B028
 0001:0000A044       Classes::TReader::ReadProperty(Classes::TPersistent *)
 0001:0000A0A9       loc_40B0A9
 0001:0000A0AD       loc_40B0AD
 0001:0000A0AE       loc_40B0AE
 0001:0000A0BC       loc_40B0BC
 0001:0000A0F8       loc_40B0F8
 0001:0000A111       loc_40B111
 0001:0000A129       loc_40B129
 0001:0000A135       loc_40B135
 0001:0000A15F       loc_40B15F
 0001:0000A189       loc_40B189
 0001:0000A193       loc_40B193
 0001:0000A1A4       loc_40B1A4
 0001:0000A1B0       loc_40B1B0
 0001:0000A1BA       loc_40B1BA
 0001:0000A1CB       loc_40B1CB
 0001:0000A1E5       loc_40B1E5
 0001:0000A1EA       loc_40B1EA
 0001:0000A1EF       loc_40B1EF
 0001:0000A1FC       loc_40B1FC
 0001:0000A205       loc_40B205
 0001:0000A20C       loc_40B20C
 0001:0000A214       sub_40B214
 0001:0000A236       loc_40B236
 0001:0000A26B       loc_40B26B
 0001:0000A26F       loc_40B26F
 0001:0000A274       loc_40B274
 0001:0000A27C       Classes::_16834
 0001:0000A2E7       loc_40B2E7
 0001:0000A325       loc_40B325
 0001:0000A331       loc_40B331
 0001:0000A33E       loc_40B33E
 0001:0000A34C       loc_40B34C
 0001:0000A353       loc_40B353
 0001:0000A35C       TypInfo::_16410
 0001:0000A364       dword_40B364
 0001:0000A368       sub_40B368
 0001:0000A39E       loc_40B39E
 0001:0000A3B4       off_40B3B4
 0001:0000A3E0       loc_40B3E0
 0001:0000A409       loc_40B409
 0001:0000A422       loc_40B422
 0001:0000A43D       loc_40B43D
 0001:0000A463       loc_40B463
 0001:0000A481       loc_40B481
 0001:0000A49E       loc_40B49E
 0001:0000A4B9       loc_40B4B9
 0001:0000A4CB       loc_40B4CB
 0001:0000A4E4       loc_40B4E4
 0001:0000A502       loc_40B502
 0001:0000A51E       loc_40B51E
 0001:0000A543       loc_40B543
 0001:0000A57E       loc_40B57E
 0001:0000A58B       loc_40B58B
 0001:0000A594       loc_40B594
 0001:0000A59B       loc_40B59B
 0001:0000A5A4       Classes::_16838
 0001:0000A5CE       loc_40B5CE
 0001:0000A5F0       loc_40B5F0
 0001:0000A5FC       loc_40B5FC
 0001:0000A60C       aSD
 0001:0000A614       Classes::TReader::ReadRootComponent(Classes::TComponent *)
 0001:0000A69D       loc_40B69D
 0001:0000A6C4       loc_40B6C4
 0001:0000A6E5       loc_40B6E5
 0001:0000A704       loc_40B704
 0001:0000A716       loc_40B716
 0001:0000A78C       loc_40B78C
 0001:0000A7A5       loc_40B7A5
 0001:0000A7B2       loc_40B7B2
 0001:0000A7C6       loc_40B7C6
 0001:0000A7CF       loc_40B7CF
 0001:0000A7D6       loc_40B7D6
 0001:0000A7E5       loc_40B7E5
 0001:0000A802       loc_40B802
 0001:0000A80C       loc_40B80C
 0001:0000A819       loc_40B819
 0001:0000A827       loc_40B827
 0001:0000A82E       loc_40B82E
 0001:0000A838       Classes::TReader::ReadSet(void *)
 0001:0000A878       loc_40B878
 0001:0000A884       loc_40B884
 0001:0000A8A9       loc_40B8A9
 0001:0000A8B3       loc_40B8B3
 0001:0000A8CA       loc_40B8CA
 0001:0000A8D7       loc_40B8D7
 0001:0000A8E0       loc_40B8E0
 0001:0000A8E7       loc_40B8E7
 0001:0000A8F0       sub_40B8F0
 0001:0000A912       loc_40B912
 0001:0000A914       Classes::TReader::ReadStr(void)
 0001:0000A950       Classes::TReader::ReadString(void)
 0001:0000A96D       loc_40B96D
 0001:0000A97D       loc_40B97D
 0001:0000A98D       loc_40B98D
 0001:0000A992       loc_40B992
 0001:0000A9B0       Classes::TReader::ReadValue(void)
 0001:0000A9C4       TIBTable::GetIndexFieldCount
 0001:0000A9DC       loc_40B9DC
 0001:0000A9F9       loc_40B9F9
 0001:0000AA02       loc_40BA02
 0001:0000AA09       loc_40BA09
 0001:0000AA10       Classes::_17049
 0001:0000AA1C       loc_40BA1C
 0001:0000AA23       loc_40BA23
 0001:0000AA38       Classes::_16850
 0001:0000AA48       loc_40BA48
 0001:0000AA6E       loc_40BA6E
 0001:0000AA83       loc_40BA83
 0001:0000AA87       loc_40BA87
 0001:0000AA8C       Classes::_16851
 0001:0000AAB4       sub_40BAB4
 0001:0000AAEE       off_40BAEE
 0001:0000AB20       loc_40BB20
 0001:0000AB29       loc_40BB29
 0001:0000AB37       loc_40BB37
 0001:0000AB45       loc_40BB45
 0001:0000AB53       loc_40BB53
 0001:0000AB61       loc_40BB61
 0001:0000AB6E       loc_40BB6E
 0001:0000AB77       loc_40BB77
 0001:0000AB7F       loc_40BB7F
 0001:0000AB8C       loc_40BB8C
 0001:0000AB95       loc_40BB95
 0001:0000AB9C       loc_40BB9C
 0001:0000ABA4       TIBTable::GetIndexFieldCount
 0001:0000ABDA       loc_40BBDA
 0001:0000ABE3       loc_40BBE3
 0001:0000ABEA       loc_40BBEA
 0001:0000ABF0       sub_40BBF0
 0001:0000AC35       loc_40BC35
 0001:0000AC3C       loc_40BC3C
 0001:0000AC50       loc_40BC50
 0001:0000AC59       loc_40BC59
 0001:0000AC78       loc_40BC78
 0001:0000AC81       loc_40BC81
 0001:0000AC88       loc_40BC88
 0001:0000AC90       Classes::TReader::SetName(Classes::TComponent *,System::AnsiString &)
 0001:0000ACAB       loc_40BCAB
 0001:0000ACB8       sub_40BCB8
 0001:0000ACD9       loc_40BCD9
 0001:0000ACE0       TWriter::AddAncestor
 0001:0000ACEC       sub_40BCEC
 0001:0000AD05       loc_40BD05
 0001:0000AD0C       sub_40BD0C
 0001:0000AD2A       loc_40BD2A
 0001:0000AD30       Classes::TWriter::GetPosition(void)
 0001:0000AD40       sub_40BD40
 0001:0000AD48       Classes::TWriter::SetPosition(int)
 0001:0000AD63       loc_40BD63
 0001:0000AD77       loc_40BD77
 0001:0000AD80       Classes::TWriter::Write(void *,int)
 0001:0000AD8B       loc_40BD8B
 0001:0000AD9D       loc_40BD9D
 0001:0000ADA3       loc_40BDA3
 0001:0000ADC1       loc_40BDC1
 0001:0000ADCC       sub_40BDCC
 0001:0000AE3B       loc_40BE3B
 0001:0000AE44       loc_40BE44
 0001:0000AE4B       loc_40BE4B
 0001:0000AE54       Classes::TWriter::WriteBuffer(void)
 0001:0000AE6C       Classes::TWriter::WriteBoolean(bool)
 0001:0000AE78       loc_40BE78
 0001:0000AE80       sub_40BE80
 0001:0000AEBB       loc_40BEBB
 0001:0000AEC4       loc_40BEC4
 0001:0000AECB       loc_40BECB
 0001:0000AED4       Classes::TWriter::WriteCollection(Classes::TCollection *)
 0001:0000AEF6       loc_40BEF6
 0001:0000AF1A       loc_40BF1A
 0001:0000AF28       Classes::_16877
 0001:0000AF46       loc_40BF46
 0001:0000AF6B       loc_40BF6B
 0001:0000AF6D       loc_40BF6D
 0001:0000AF78       sub_40BF78
 0001:0000AF9F       loc_40BF9F
 0001:0000AFB4       sub_40BFB4
 0001:0000B020       loc_40C020
 0001:0000B040       loc_40C040
 0001:0000B077       loc_40C077
 0001:0000B07B       loc_40C07B
 0001:0000B0F8       loc_40C0F8
 0001:0000B0FE       loc_40C0FE
 0001:0000B1B1       loc_40C1B1
 0001:0000B1D3       loc_40C1D3
 0001:0000B1DF       loc_40C1DF
 0001:0000B1E6       loc_40C1E6
 0001:0000B1F3       loc_40C1F3
 0001:0000B20F       loc_40C20F
 0001:0000B216       loc_40C216
 0001:0000B250       loc_40C250
 0001:0000B25D       loc_40C25D
 0001:0000B269       loc_40C269
 0001:0000B270       loc_40C270
 0001:0000B278       byte_40C278
 0001:0000B27C       byte_40C27C
 0001:0000B280       Classes::TWriter::WriteFloat(long double)
 0001:0000B2A4       Classes::TWriter::WriteIdent(System::AnsiString)
 0001:0000B2C6       loc_40C2C6
 0001:0000B2E1       loc_40C2E1
 0001:0000B2FC       loc_40C2FC
 0001:0000B30E       loc_40C30E
 0001:0000B314       TypInfo::_16408
 0001:0000B31C       aFalse_0
 0001:0000B32C       aTrue_0
 0001:0000B33C       dword_40C33C
 0001:0000B340       Classes::TWriter::WriteInteger(int)
 0001:0000B36D       loc_40C36D
 0001:0000B398       loc_40C398
 0001:0000B3AF       loc_40C3AF
 0001:0000B3B4       sub_40C3B4
 0001:0000B3BC       sub_40C3BC
 0001:0000B3C4       Classes::TWriter::WritePrefix(System::Set<Classes::TFilerFlag,(uchar)0,(uchar)2>,int)
 0001:0000B400       loc_40C400
 0001:0000B404       byte_40C404
 0001:0000B408       TWriter::WriteProperties
 0001:0000B470       loc_40C470
 0001:0000B491       loc_40C491
 0001:0000B495       loc_40C495
 0001:0000B4A2       loc_40C4A2
 0001:0000B4B1       loc_40C4B1
 0001:0000B4B8       loc_40C4B8
 0001:0000B4CC       Classes::_16891
 0001:0000B50C       loc_40C50C
 0001:0000B511       loc_40C511
 0001:0000B518       sub_40C518
 0001:0000B55A       loc_40C55A
 0001:0000B563       loc_40C563
 0001:0000B56A       loc_40C56A
 0001:0000B570       Classes::_16893
 0001:0000B5A5       loc_40C5A5
 0001:0000B5AF       loc_40C5AF
 0001:0000B5CB       loc_40C5CB
 0001:0000B5EB       loc_40C5EB
 0001:0000B5F4       loc_40C5F4
 0001:0000B5FB       loc_40C5FB
 0001:0000B604       Classes::_16849
 0001:0000B636       loc_40C636
 0001:0000B669       loc_40C669
 0001:0000B66D       loc_40C66D
 0001:0000B67B       loc_40C67B
 0001:0000B688       loc_40C688
 0001:0000B691       loc_40C691
 0001:0000B698       loc_40C698
 0001:0000B6A0       sub_40C6A0
 0001:0000B709       loc_40C709
 0001:0000B71B       loc_40C71B
 0001:0000B722       loc_40C722
 0001:0000B72F       loc_40C72F
 0001:0000B738       loc_40C738
 0001:0000B73F       loc_40C73F
 0001:0000B748       Classes::_16896
 0001:0000B781       loc_40C781
 0001:0000B798       sub_40C798
 0001:0000B7F7       loc_40C7F7
 0001:0000B80E       loc_40C80E
 0001:0000B81E       loc_40C81E
 0001:0000B82D       loc_40C82D
 0001:0000B84C       loc_40C84C
 0001:0000B859       loc_40C859
 0001:0000B862       loc_40C862
 0001:0000B869       loc_40C869
 0001:0000B870       Classes::_16898
 0001:0000B8AE       loc_40C8AE
 0001:0000B8C4       flt_40C8C4
 0001:0000B8C8       Classes::_16899
 0001:0000B90E       loc_40C90E
 0001:0000B914       sub_40C914
 0001:0000B96B       loc_40C96B
 0001:0000B975       loc_40C975
 0001:0000B982       loc_40C982
 0001:0000B98B       loc_40C98B
 0001:0000B992       loc_40C992
 0001:0000B99C       sub_40C99C
 0001:0000B9E9       loc_40C9E9
 0001:0000B9F6       loc_40C9F6
 0001:0000B9FF       loc_40C9FF
 0001:0000BA06       loc_40CA06
 0001:0000BA0C       Classes::_16902
 0001:0000BA8F       loc_40CA8F
 0001:0000BA9C       sub_40CA9C
 0001:0000BAC5       loc_40CAC5
 0001:0000BAE2       loc_40CAE2
 0001:0000BAE9       loc_40CAE9
 0001:0000BAF0       TypInfo::_16410
 0001:0000BAF8       dword_40CAF8
 0001:0000BAFC       sub_40CAFC
 0001:0000BB57       loc_40CB57
 0001:0000BBCB       loc_40CBCB
 0001:0000BC10       loc_40CC10
 0001:0000BC22       loc_40CC22
 0001:0000BC9C       loc_40CC9C
 0001:0000BCC4       loc_40CCC4
 0001:0000BCD1       loc_40CCD1
 0001:0000BCDF       loc_40CCDF
 0001:0000BCE6       loc_40CCE6
 0001:0000BCF0       TypInfo::_16410
 0001:0000BCF8       dword_40CCF8
 0001:0000BCFC       Classes::_16905
 0001:0000BD3A       loc_40CD3A
 0001:0000BD73       loc_40CD73
 0001:0000BD77       loc_40CD77
 0001:0000BD79       loc_40CD79
 0001:0000BD80       sub_40CD80
 0001:0000BDDE       loc_40CDDE
 0001:0000BE12       loc_40CE12
 0001:0000BE1F       loc_40CE1F
 0001:0000BE28       loc_40CE28
 0001:0000BE2F       loc_40CE2F
 0001:0000BE38       sub_40CE38
 0001:0000BE67       off_40CE67
 0001:0000BE93       loc_40CE93
 0001:0000BE9C       loc_40CE9C
 0001:0000BEA5       loc_40CEA5
 0001:0000BEAE       loc_40CEAE
 0001:0000BEB7       loc_40CEB7
 0001:0000BEBE       loc_40CEBE
 0001:0000BEC4       sub_40CEC4
 0001:0000BF0A       loc_40CF0A
 0001:0000BF13       loc_40CF13
 0001:0000BF1A       loc_40CF1A
 0001:0000BF20       Classes::TWriter::WriteStr(System::AnsiString)
 0001:0000BF41       loc_40CF41
 0001:0000BF68       Classes::TWriter::WriteString(System::AnsiString)
 0001:0000BF9B       loc_40CF9B
 0001:0000BFB2       loc_40CFB2
 0001:0000BFC4       Classes::TWriter::WriteValue(Classes::TValueType)
 0001:0000BFD8       sub_40CFD8
 0001:0000BFE7       loc_40CFE7
 0001:0000C002       loc_40D002
 0001:0000C010       loc_40D010
 0001:0000C018       byte_40D018
 0001:0000C01C       sub_40D01C
 0001:0000C038       loc_40D038
 0001:0000C04F       loc_40D04F
 0001:0000C05C       loc_40D05C
 0001:0000C078       loc_40D078
 0001:0000C085       loc_40D085
 0001:0000C090       sub_40D090
 0001:0000C0A2       loc_40D0A2
 0001:0000C0B7       loc_40D0B7
 0001:0000C0D8       loc_40D0D8
 0001:0000C0DC       Classes::TComponent::ReadLeft(Classes::TReader *)
 0001:0000C0F0       Classes::TComponent::ReadTop(Classes::TReader *)
 0001:0000C104       Classes::TComponent::WriteLeft(Classes::TWriter *)
 0001:0000C110       Classes::TComponent::WriteTop(Classes::TWriter *)
 0001:0000C11C       sub_40D11C
 0001:0000C137       loc_40D137
 0001:0000C148       Classes::TComponent::Remove(Classes::TComponent *)
 0001:0000C16B       loc_40D16B
 0001:0000C170       sub_40D170
 0001:0000C1A7       loc_40D1A7
 0001:0000C1B8       Classes::TComponent::RemoveComponent(Classes::TComponent *)
 0001:0000C1F8       sub_40D1F8
 0001:0000C1FE       loc_40D1FE
 0001:0000C217       loc_40D217
 0001:0000C224       sub_40D224
 0001:0000C245       loc_40D245
 0001:0000C258       loc_40D258
 0001:0000C25C       Classes::TComponent::Notification(Classes::TComponent *,Classes::TOperation)
 0001:0000C295       loc_40D295
 0001:0000C2A7       loc_40D2A7
 0001:0000C2C1       loc_40D2C1
 0001:0000C2C8       sub_40D2C8
 0001:0000C2ED       loc_40D2ED
 0001:0000C300       sub_40D300
 0001:0000C325       loc_40D325
 0001:0000C338       sub_40D338
 0001:0000C3A8       Consts::_16636
 0001:0000C3B8       dword_40D3B8
 0001:0000C3BC       sub_40D3BC
 0001:0000C3C0       sub_40D3C0
 0001:0000C3C8       sub_40D3C8
 0001:0000C3CC       nullsub_9
 0001:0000C3D0       nullsub_10
 0001:0000C3D4       sub_40D3D4
 0001:0000C3D8       nullsub_11
 0001:0000C3DC       sub_40D3DC
 0001:0000C3E8       sub_40D3E8
 0001:0000C3F4       sub_40D3F4
 0001:0000C400       sub_40D400
 0001:0000C408       Classes::TComponent::WriteState(Classes::TWriter *)
 0001:0000C410       sub_40D410
 0001:0000C465       loc_40D465
 0001:0000C47F       loc_40D47F
 0001:0000C488       sub_40D488
 0001:0000C4AC       loc_40D4AC
 0001:0000C4CB       loc_40D4CB
 0001:0000C4CD       loc_40D4CD
 0001:0000C4D8       sub_40D4D8
 0001:0000C51E       loc_40D51E
 0001:0000C532       loc_40D532
 0001:0000C53F       loc_40D53F
 0001:0000C55A       loc_40D55A
 0001:0000C560       Classes::TComponent::ChangeName(System::AnsiString)
 0001:0000C574       sub_40D574
 0001:0000C58A       loc_40D58A
 0001:0000C598       Classes::TComponent::GetComponentCount(void)
 0001:0000C5A3       loc_40D5A3
 0001:0000C5A8       Classes::TComponent::SetComponentIndex(int)
 0001:0000C5D3       loc_40D5D3
 0001:0000C5DA       loc_40D5DA
 0001:0000C5F5       loc_40D5F5
 0001:0000C5FC       sub_40D5FC
 0001:0000C60E       loc_40D60E
 0001:0000C612       loc_40D612
 0001:0000C623       loc_40D623
 0001:0000C637       loc_40D637
 0001:0000C63C       Classes::TComponent::SetReference(bool)
 0001:0000C674       loc_40D674
 0001:0000C678       loc_40D678
 0001:0000C684       Classes::_16992
 0001:0000C699       loc_40D699
 0001:0000C6AB       loc_40D6AB
 0001:0000C6B8       sub_40D6B8
 0001:0000C6F0       sub_40D6F0
 0001:0000C75C       ImageList_Create
 0001:0000C764       ImageList_Destroy
 0001:0000C76C       ImageList_ReplaceIcon
 0001:0000C774       ImageList_SetBkColor
 0001:0000C77C       Commctrl::ImageList_AddIcon(uint,uint)
 0001:0000C788       ImageList_BeginDrag
 0001:0000C790       ImageList_EndDrag
 0001:0000C798       ImageList_DragEnter
 0001:0000C7A0       ImageList_DragLeave
 0001:0000C7A8       ImageList_DragMove
 0001:0000C7B0       ImageList_SetDragCursorImage
 0001:0000C7B8       ImageList_DragShowNolock
 0001:0000C7C0       ImageList_GetDragImage
 0001:0000C7C8       sub_40D7C8
 0001:0000C7D4       sub_40D7D4
 0001:0000C81C       dword_40D81C
 0001:0000C844       dword_40D844
 0001:0000C88C       unknown_libname_295
 0001:0000C8A4       off_40D8A4
 0001:0000C8D4       dword_40D8D4
 0001:0000C8EE       word_40D8EE
 0001:0000C90E       word_40D90E
 0001:0000C918       dword_40D918
 0001:0000C968       unknown_libname_296
 0001:0000C9F0       unknown_libname_297
 0001:0000CB08       off_40DB08
 0001:0000CB38       dword_40DB38
 0001:0000CB4A       word_40DB4A
 0001:0000CB58       dword_40DB58
 0001:0000CB60       dword_40DB60
 0001:0000CB8C       unknown_libname_298
 0001:0000CBD0       off_40DBD0
 0001:0000CC00       dword_40DC00
 0001:0000CC0C       tiTMainMenu
 0001:0000CC3C       dword_40DC3C
 0001:0000CCBC       off_40DCBC
 0001:0000CCF0       dword_40DCF0
 0001:0000CCFC       tiTPopupMenu
 0001:0000CDAC       sub_40DDAC
 0001:0000CDC4       sub_40DDC4
 0001:0000CDFC       loc_40DDFC
 0001:0000CE05       loc_40DE05
 0001:0000CE0C       loc_40DE0C
 0001:0000CE14       sub_40DE14
 0001:0000CE36       loc_40DE36
 0001:0000CE62       loc_40DE62
 0001:0000CE6B       loc_40DE6B
 0001:0000CE72       loc_40DE72
 0001:0000CE78       Menus::_16411
 0001:0000CED9       loc_40DED9
 0001:0000CEE0       sub_40DEE0
 0001:0000CF33       loc_40DF33
 0001:0000CF53       loc_40DF53
 0001:0000CF7C       loc_40DF7C
 0001:0000CF94       loc_40DF94
 0001:0000CFA7       loc_40DFA7
 0001:0000CFBA       loc_40DFBA
 0001:0000CFD5       loc_40DFD5
 0001:0000CFED       loc_40DFED
 0001:0000D001       loc_40E001
 0001:0000D015       loc_40E015
 0001:0000D029       loc_40E029
 0001:0000D04A       loc_40E04A
 0001:0000D056       loc_40E056
 0001:0000D076       loc_40E076
 0001:0000D089       loc_40E089
 0001:0000D09F       loc_40E09F
 0001:0000D0AB       loc_40E0AB
 0001:0000D0B2       loc_40E0B2
 0001:0000D0BF       loc_40E0BF
 0001:0000D0CD       loc_40E0CD
 0001:0000D0D4       loc_40E0D4
 0001:0000D0E4       dword_40E0E4
 0001:0000D0E8       sub_40E0E8
 0001:0000D142       loc_40E142
 0001:0000D14F       loc_40E14F
 0001:0000D158       loc_40E158
 0001:0000D15F       loc_40E15F
 0001:0000D168       Menus::TextToShortCut(System::AnsiString)
 0001:0000D193       loc_40E193
 0001:0000D1AC       loc_40E1AC
 0001:0000D1C4       loc_40E1C4
 0001:0000D1DD       loc_40E1DD
 0001:0000D1F6       loc_40E1F6
 0001:0000D200       loc_40E200
 0001:0000D220       loc_40E220
 0001:0000D228       loc_40E228
 0001:0000D235       loc_40E235
 0001:0000D243       loc_40E243
 0001:0000D24A       loc_40E24A
 0001:0000D25C       dword_40E25C
 0001:0000D260       Menus::_16433
 0001:0000D280       Menus::_16416
 0001:0000D299       loc_40E299
 0001:0000D2C6       loc_40E2C6
 0001:0000D2D7       loc_40E2D7
 0001:0000D2E0       Menus::_16435
 0001:0000D30C       loc_40E30C
 0001:0000D31C       loc_40E31C
 0001:0000D325       loc_40E325
 0001:0000D342       loc_40E342
 0001:0000D358       loc_40E358
 0001:0000D374       loc_40E374
 0001:0000D38F       loc_40E38F
 0001:0000D392       loc_40E392
 0001:0000D3AB       loc_40E3AB
 0001:0000D3AE       loc_40E3AE
 0001:0000D3C6       loc_40E3C6
 0001:0000D3DE       loc_40E3DE
 0001:0000D3E8       sub_40E3E8
 0001:0000D3F6       loc_40E3F6
 0001:0000D422       loc_40E422
 0001:0000D428       sub_40E428
 0001:0000D441       loc_40E441
 0001:0000D462       loc_40E462
 0001:0000D470       loc_40E470
 0001:0000D49B       loc_40E49B
 0001:0000D4AF       loc_40E4AF
 0001:0000D4B4       sub_40E4B4
 0001:0000D4D2       loc_40E4D2
 0001:0000D4EA       loc_40E4EA
 0001:0000D4F0       TMenuItem::ClearHandles
 0001:0000D4FC       sub_40E4FC
 0001:0000D54B       loc_40E54B
 0001:0000D570       loc_40E570
 0001:0000D594       loc_40E594
 0001:0000D649       loc_40E649
 0001:0000D65C       loc_40E65C
 0001:0000D6CC       loc_40E6CC
 0001:0000D6E3       loc_40E6E3
 0001:0000D6F0       loc_40E6F0
 0001:0000D701       loc_40E701
 0001:0000D708       loc_40E708
 0001:0000D718       dword_40E718
 0001:0000D724       dword_40E724
 0001:0000D728       sub_40E728
 0001:0000D740       sub_40E740
 0001:0000D760       sub_40E760
 0001:0000D7A2       loc_40E7A2
 0001:0000D7AB       loc_40E7AB
 0001:0000D7B2       loc_40E7B2
 0001:0000D7B8       Dbweb::TDSTableProducer::SetMaxRows(int)
 0001:0000D7C5       locret_40E7C5
 0001:0000D7C8       sub_40E7C8
 0001:0000D7CD       loc_40E7CD
 0001:0000D7E1       loc_40E7E1
 0001:0000D804       Menus::TMenuItem::VerifyGroupIndex(int,uchar)
 0001:0000D839       loc_40E839
 0001:0000D866       loc_40E866
 0001:0000D886       loc_40E886
 0001:0000D88A       loc_40E88A
 0001:0000D897       loc_40E897
 0001:0000D8A0       loc_40E8A0
 0001:0000D8A7       loc_40E8A7
 0001:0000D8B0       nullsub_12
 0001:0000D8B4       sub_40E8B4
 0001:0000D8D8       loc_40E8D8
 0001:0000D8E0       loc_40E8E0
 0001:0000D8FC       loc_40E8FC
 0001:0000D903       loc_40E903
 0001:0000D908       Menus::TMenuItem::DefineProperties(Classes::TFiler *)
 0001:0000D93C       aShortcuttext
 0001:0000D94C       sub_40E94C
 0001:0000D950       loc_40E950
 0001:0000D95A       TStrings::Append
 0001:0000D95F       locret_40E95F
 0001:0000D960       sub_40E960
 0001:0000D985       loc_40E985
 0001:0000D988       sub_40E988
 0001:0000D9B9       loc_40E9B9
 0001:0000D9DC       loc_40E9DC
 0001:0000D9E0       loc_40E9E0
 0001:0000DA0B       loc_40EA0B
 0001:0000DA10       sub_40EA10
 0001:0000DA3E       loc_40EA3E
 0001:0000DA66       loc_40EA66
 0001:0000DA6F       loc_40EA6F
 0001:0000DA74       sub_40EA74
 0001:0000DA9B       loc_40EA9B
 0001:0000DA9E       loc_40EA9E
 0001:0000DAA4       sub_40EAA4
 0001:0000DAAE       loc_40EAAE
 0001:0000DAB4       sub_40EAB4
 0001:0000DAC5       loc_40EAC5
 0001:0000DAD4       sub_40EAD4
 0001:0000DAE0       sub_40EAE0
 0001:0000DAEC       sub_40EAEC
 0001:0000DB01       loc_40EB01
 0001:0000DB04       sub_40EB04
 0001:0000DB1D       loc_40EB1D
 0001:0000DB24       loc_40EB24
 0001:0000DB46       loc_40EB46
 0001:0000DB4C       TMenuItem::GetChildren
 0001:0000DB67       loc_40EB67
 0001:0000DB7D       loc_40EB7D
 0001:0000DB84       sub_40EB84
 0001:0000DBC9       loc_40EBC9
 0001:0000DBE7       loc_40EBE7
 0001:0000DBEB       loc_40EBEB
 0001:0000DBF7       loc_40EBF7
 0001:0000DBFC       sub_40EBFC
 0001:0000DC22       loc_40EC22
 0001:0000DC37       loc_40EC37
 0001:0000DC6C       loc_40EC6C
 0001:0000DCA4       loc_40ECA4
 0001:0000DCB4       sub_40ECB4
 0001:0000DCD0       loc_40ECD0
 0001:0000DCD5       loc_40ECD5
 0001:0000DD0B       loc_40ED0B
 0001:0000DD18       sub_40ED18
 0001:0000DD38       locret_40ED38
 0001:0000DD3C       sub_40ED3C
 0001:0000DD50       loc_40ED50
 0001:0000DD54       TMenuItem::Add
 0001:0000DD70       sub_40ED70
 0001:0000DD95       loc_40ED95
 0001:0000DDA0       TServerWinSocket::ThreadEnd
 0001:0000DDBD       loc_40EDBD
 0001:0000DDC0       sub_40EDC0
 0001:0000DDD5       loc_40EDD5
 0001:0000DDE8       loc_40EDE8
 0001:0000DE02       loc_40EE02
 0001:0000DE08       sub_40EE08
 0001:0000DE1F       loc_40EE1F
 0001:0000DE24       sub_40EE24
 0001:0000DE38       loc_40EE38
 0001:0000DE58       loc_40EE58
 0001:0000DE71       loc_40EE71
 0001:0000DE74       sub_40EE74
 0001:0000DE83       locret_40EE83
 0001:0000DE84       sub_40EE84
 0001:0000DE97       loc_40EE97
 0001:0000DEE3       loc_40EEE3
 0001:0000DEEC       sub_40EEEC
 0001:0000DF0E       loc_40EF0E
 0001:0000DF14       sub_40EF14
 0001:0000DF30       sub_40EF30
 0001:0000DF3C       sub_40EF3C
 0001:0000DF4C       sub_40EF4C
 0001:0000DF70       loc_40EF70
 0001:0000DF84       loc_40EF84
 0001:0000DF9B       loc_40EF9B
 0001:0000DFA7       loc_40EFA7
 0001:0000DFB8       loc_40EFB8
 0001:0000DFD5       loc_40EFD5
 0001:0000DFD9       loc_40EFD9
 0001:0000DFE4       sub_40EFE4
 0001:0000E014       sub_40F014
 0001:0000E025       loc_40F025
 0001:0000E02F       loc_40F02F
 0001:0000E032       loc_40F032
 0001:0000E03C       loc_40F03C
 0001:0000E043       loc_40F043
 0001:0000E048       sub_40F048
 0001:0000E060       loc_40F060
 0001:0000E064       sub_40F064
 0001:0000E079       loc_40F079
 0001:0000E080       sub_40F080
 0001:0000E0A1       loc_40F0A1
 0001:0000E0D9       loc_40F0D9
 0001:0000E0E3       loc_40F0E3
 0001:0000E0FF       loc_40F0FF
 0001:0000E103       loc_40F103
 0001:0000E10C       sub_40F10C
 0001:0000E13E       loc_40F13E
 0001:0000E150       loc_40F150
 0001:0000E15C       loc_40F15C
 0001:0000E181       loc_40F181
 0001:0000E18D       loc_40F18D
 0001:0000E194       Menus::_16476
 0001:0000E1C2       loc_40F1C2
 0001:0000E207       loc_40F207
 0001:0000E21C       loc_40F21C
 0001:0000E231       loc_40F231
 0001:0000E240       loc_40F240
 0001:0000E24E       loc_40F24E
 0001:0000E258       dword_40F258
 0001:0000E25C       dword_40F25C
 0001:0000E260       dword_40F260
 0001:0000E264       dword_40F264
 0001:0000E268       sub_40F268
 0001:0000E292       loc_40F292
 0001:0000E2AF       loc_40F2AF
 0001:0000E2C4       loc_40F2C4
 0001:0000E2CC       sub_40F2CC
 0001:0000E2D8       nullsub_13
 0001:0000E2DC       loc_40F2DC
 0001:0000E2FA       locret_40F2FA
 0001:0000E2FC       sub_40F2FC
 0001:0000E319       loc_40F319
 0001:0000E31C       sub_40F31C
 0001:0000E32C       loc_40F32C
 0001:0000E338       sub_40F338
 0001:0000E351       locret_40F351
 0001:0000E354       sub_40F354
 0001:0000E379       loc_40F379
 0001:0000E37C       TMainMenu::GetHandle
 0001:0000E386       loc_40F386
 0001:0000E3C0       off_40F3C0
 0001:0000E3C8       dword_40F3C8
 0001:0000E3D4       sub_40F3D4
 0001:0000E415       loc_40F415
 0001:0000E427       loc_40F427
 0001:0000E44B       loc_40F44B
 0001:0000E454       loc_40F454
 0001:0000E466       loc_40F466
 0001:0000E489       loc_40F489
 0001:0000E492       loc_40F492
 0001:0000E4A0       loc_40F4A0
 0001:0000E4AE       loc_40F4AE
 0001:0000E4E2       loc_40F4E2
 0001:0000E4E6       loc_40F4E6
 0001:0000E4F7       loc_40F4F7
 0001:0000E50F       loc_40F50F
 0001:0000E55A       loc_40F55A
 0001:0000E573       loc_40F573
 0001:0000E58F       loc_40F58F
 0001:0000E59B       loc_40F59B
 0001:0000E5A5       loc_40F5A5
 0001:0000E5AD       loc_40F5AD
 0001:0000E5D1       loc_40F5D1
 0001:0000E5E8       loc_40F5E8
 0001:0000E5F0       Menus::TPopupList::Add(Menus::TPopupMenu *)
 0001:0000E60A       loc_40F60A
 0001:0000E618       Menus::TPopupList::Remove(Menus::TPopupMenu *)
 0001:0000E630       loc_40F630
 0001:0000E634       sub_40F634
 0001:0000E642       loc_40F642
 0001:0000E68B       loc_40F68B
 0001:0000E690       sub_40F690
 0001:0000E6B6       loc_40F6B6
 0001:0000E6BC       sub_40F6BC
 0001:0000E6CB       locret_40F6CB
 0001:0000E6CC       sub_40F6CC
 0001:0000E6D4       sub_40F6D4
 0001:0000E6DC       sub_40F6DC
 0001:0000E724       sub_40F724
 0001:0000E77F       loc_40F77F
 0001:0000E780       loc_40F780
 0001:0000E787       loc_40F787
 0001:0000E7C4       dword_40F7C4
 0001:0000E808       dword_40F808
 0001:0000E81C       tiTCursor
 0001:0000E864       off_40F864
 0001:0000E880       dword_40F880
 0001:0000E8C0       off_40F8C0
 0001:0000E8DC       dword_40F8DC
 0001:0000E90C       unknown_libname_302
 0001:0000E924       off_40F924
 0001:0000E93C       dword_40F93C
 0001:0000E94C       tiTControlCanvas
 0001:0000E964       dword_40F964
 0001:0000E98C       dword_40F98C
 0001:0000E9E8       tiTTabOrder
 0001:0000E9FC       byte_40F9FC
 0001:0000EA08       tiTMouseEvent
 0001:0000EA0C       aOuseevent
 0001:0000EA20       aTobject
 0001:0000EA30       aTmousebutton
 0001:0000EA44       aTshiftstate
 0001:0000EA54       aNteger
 0001:0000EA68       tiTMouseMoveEvent
 0001:0000EA6C       aOusemoveevent
 0001:0000EA84       aTobject_0
 0001:0000EA94       aShiftstate
 0001:0000EAA4       aTeger
 0001:0000EAAD       aIntegerTkeyeve
 0001:0000EAC0       dword_40FAC0
 0001:0000EC88       off_40FC88
 0001:0000ECDC       dword_40FCDC
 0001:0000ECEE       word_40FCEE
 0001:0000EDEC       dword_40FDEC
 0001:0000EDF8       tiTControl
 0001:0000EEA8       unknown_libname_305
 0001:0000EF0C       off_40FF0C
 0001:0000EF88       dword_40FF88
 0001:0000F12E       word_41012E
 0001:0000F13C       tiTWinControl
 0001:0000F1B8       off_4101B8
 0001:0000F210       dword_410210
 0001:0000F218       dword_410218
 0001:0000F228       tiTGraphicControl
 0001:0000F244       aControls
 0001:0000F284       off_410284
 0001:0000F304       dword_410304
 0001:0000F30C       dword_41030C
 0001:0000F31C       tiTCustomControl
 0001:0000F378       off_410378
 0001:0000F400       dword_410400
 0001:0000F408       dword_410408
 0001:0000F414       tiTHintWindow
 0001:0000F42C       aControls_0
 0001:0000F438       sub_410438
 0001:0000F495       loc_410495
 0001:0000F4F0       Controls::FindControl(int)
 0001:0000F507       loc_410507
 0001:0000F50C       sub_41050C
 0001:0000F527       loc_410527
 0001:0000F52C       Controls::_16525
 0001:0000F534       aCrdefault
 0001:0000F540       dword_410540
 0001:0000F598       dword_410598
 0001:0000F5C0       dword_4105C0
 0001:0000F60C       dword_41060C
 0001:0000F620       dword_410620
 0001:0000F634       dword_410634
 0001:0000F66C       dword_41066C
 0001:0000F6A0       sub_4106A0
 0001:0000F6AF       loc_4106AF
 0001:0000F6C4       loc_4106C4
 0001:0000F6CC       loc_4106CC
 0001:0000F6D4       sub_4106D4
 0001:0000F6E6       loc_4106E6
 0001:0000F6FE       loc_4106FE
 0001:0000F706       loc_410706
 0001:0000F70C       Qcontrols::GetShortHint(System::WideString)
 0001:0000F730       loc_410730
 0001:0000F740       loc_410740
 0001:0000F74C       unknown_libname_308
 0001:0000F750       Qcontrols::GetLongHint(System::WideString)
 0001:0000F774       loc_410774
 0001:0000F784       loc_410784
 0001:0000F790       dword_410790
 0001:0000F794       sub_410794
 0001:0000F7BB       locret_4107BB
 0001:0000F7BC       sub_4107BC
 0001:0000F7EE       loc_4107EE
 0001:0000F7FB       loc_4107FB
 0001:0000F800       sub_410800
 0001:0000F808       unknown_libname_440
 0001:0000F830       sub_410830
 0001:0000F834       Controls::TDragObject::Capture(void)
 0001:0000F84C       Controls::TDragObject::ReleaseCapture(uint)
 0001:0000F860       TDragObject::GetDragCursor
 0001:0000F86D       loc_41086D
 0001:0000F871       loc_410871
 0001:0000F878       sub_410878
 0001:0000F880       nullsub_14
 0001:0000F884       nullsub_15
 0001:0000F888       TDragObject::MouseMsg
 0001:0000F8B1       loc_4108B1
 0001:0000F8D5       loc_4108D5
 0001:0000F8DC       loc_4108DC
 0001:0000F8E6       loc_4108E6
 0001:0000F8FB       loc_4108FB
 0001:0000F905       loc_410905
 0001:0000F90C       sub_41090C
 0001:0000F918       loc_410918
 0001:0000F929       locret_410929
 0001:0000F92C       loc_41092C
 0001:0000F938       sub_410938
 0001:0000F954       loc_410954
 0001:0000F958       sub_410958
 0001:0000F974       loc_410974
 0001:0000F978       sub_410978
 0001:0000F988       loc_410988
 0001:0000F98C       loc_41098C
 0001:0000F990       sub_410990
 0001:0000F9B0       loc_4109B0
 0001:0000F9D0       Controls::_16469
 0001:0000FA0F       loc_410A0F
 0001:0000FA18       Controls::_16530
 0001:0000FA31       loc_410A31
 0001:0000FA35       loc_410A35
 0001:0000FA3C       Controls::_16590
 0001:0000FA4D       loc_410A4D
 0001:0000FA64       loc_410A64
 0001:0000FA68       Controls::_16472
 0001:0000FA8C       Controls::_16473
 0001:0000FABD       loc_410ABD
 0001:0000FAC0       Controls::_16474
 0001:0000FAF6       loc_410AF6
 0001:0000FB25       loc_410B25
 0001:0000FB6C       loc_410B6C
 0001:0000FBAB       loc_410BAB
 0001:0000FBDB       loc_410BDB
 0001:0000FBEC       loc_410BEC
 0001:0000FC0B       loc_410C0B
 0001:0000FC1E       loc_410C1E
 0001:0000FC24       sub_410C24
 0001:0000FC99       loc_410C99
 0001:0000FCAC       loc_410CAC
 0001:0000FCB0       Controls::_16476
 0001:0000FD0A       loc_410D0A
 0001:0000FD1F       loc_410D1F
 0001:0000FD35       loc_410D35
 0001:0000FD3C       Controls::_16477
 0001:0000FD8D       loc_410D8D
 0001:0000FD98       loc_410D98
 0001:0000FDCD       loc_410DCD
 0001:0000FDDF       loc_410DDF
 0001:0000FDF7       loc_410DF7
 0001:0000FDFB       loc_410DFB
 0001:0000FDFD       loc_410DFD
 0001:0000FE28       loc_410E28
 0001:0000FE6D       loc_410E6D
 0001:0000FE75       loc_410E75
 0001:0000FE7C       loc_410E7C
 0001:0000FE89       loc_410E89
 0001:0000FE9A       loc_410E9A
 0001:0000FE9B       loc_410E9B
 0001:0000FEA2       loc_410EA2
 0001:0000FEA8       Controls::FindVCLWindow(Types::TPoint &)
 0001:0000FEBC       loc_410EBC
 0001:0000FED5       loc_410ED5
 0001:0000FEDC       Controls::FindDragTarget(Windows::TPoint &,bool)
 0001:0000FF14       loc_410F14
 0001:0000FF20       sub_410F20
 0001:0000FF39       loc_410F39
 0001:0000FF48       Controls::_16603
 0001:0000FF65       loc_410F65
 0001:0000FF68       Controls::MoveWindowOrg(uint,int,int)
 0001:0000FF98       sub_410F98
 0001:0000FFAC       sub_410FAC
 0001:0000FFAE       loc_410FAE
 0001:0000FFB3       loc_410FB3
 0001:0000FFC0       sub_410FC0
 0001:0000FFE1       loc_410FE1
 0001:0000FFE8       sub_410FE8
 0001:0000FFFA       loc_410FFA
 0001:00010018       loc_411018
 0001:00010032       loc_411032
 0001:00010040       sub_411040
 0001:00010070       loc_411070
 0001:00010074       sub_411074
 0001:00010089       loc_411089
 0001:0001008C       TDBText::`...'
 0001:0001009E       loc_41109E
 0001:00010106       loc_411106
 0001:00010110       word_411110
 0001:00010114       sub_411114
 0001:00010153       loc_411153
 0001:00010158       sub_411158
 0001:0001015C       sub_41115C
 0001:00010160       Qforms::TControlScrollBar::HandleAllocated(void)
 0001:00010168       sub_411168
 0001:0001016C       sub_41116C
 0001:0001018B       loc_41118B
 0001:00010190       sub_411190
 0001:000101E1       loc_4111E1
 0001:00010200       loc_411200
 0001:0001020C       sub_41120C
 0001:00010210       sub_411210
 0001:0001021D       locret_41121D
 0001:00010220       sub_411220
 0001:00010247       loc_411247
 0001:0001028A       loc_41128A
 0001:00010290       sub_411290
 0001:000102B7       loc_4112B7
 0001:000102BC       sub_4112BC
 0001:0001030F       loc_41130F
 0001:0001031C       sub_41131C
 0001:00010342       loc_411342
 0001:0001037E       loc_41137E
 0001:00010388       sub_411388
 0001:000103A8       sub_4113A8
 0001:000103C8       sub_4113C8
 0001:000103E8       sub_4113E8
 0001:00010408       sub_411408
 0001:00010428       sub_411428
 0001:00010448       sub_411448
 0001:00010460       sub_411460
 0001:00010478       unknown_libname_441
 0001:000104A4       sub_4114A4
 0001:000104BC       unknown_libname_442
 0001:000104E4       sub_4114E4
 0001:00010517       loc_411517
 0001:00010534       sub_411534
 0001:00010560       sub_411560
 0001:0001058C       TControl::SendCancelMode
 0001:0001059F       loc_41159F
 0001:000105A4       sub_4115A4
 0001:000105C6       loc_4115C6
 0001:000105CC       loc_4115CC
 0001:000105E3       loc_4115E3
 0001:000105E6       loc_4115E6
 0001:000105FF       loc_4115FF
 0001:00010606       loc_411606
 0001:0001062A       loc_41162A
 0001:00010631       loc_411631
 0001:00010653       loc_411653
 0001:00010656       loc_411656
 0001:00010692       loc_411692
 0001:000106A4       byte_4116A4
 0001:000106A8       byte_4116A8
 0001:000106AC       sub_4116AC
 0001:00010707       loc_411707
 0001:0001070B       loc_41170B
 0001:0001070D       loc_41170D
 0001:00010725       loc_411725
 0001:00010732       loc_411732
 0001:0001073B       loc_41173B
 0001:00010742       loc_411742
 0001:0001074C       sub_41174C
 0001:00010794       sub_411794
 0001:000107BB       loc_4117BB
 0001:000107C9       loc_4117C9
 0001:000107D6       loc_4117D6
 0001:000107DC       sub_4117DC
 0001:00010814       loc_411814
 0001:00010818       sub_411818
 0001:0001082E       locret_41182E
 0001:00010830       Controls::TControl::GetTextLen(void)
 0001:00010840       Controls::TControl::GetTextBuf(char *,int)
 0001:0001084C       sub_41184C
 0001:00010859       locret_411859
 0001:0001085C       Controls::TControl::SetTextBuf(char *)
 0001:00010880       Controls::TControl::GetText(void)
 0001:000108AB       loc_4118AB
 0001:000108B0       sub_4118B0
 0001:000108F0       loc_4118F0
 0001:000108FD       loc_4118FD
 0001:00010906       loc_411906
 0001:0001090D       loc_41190D
 0001:00010914       sub_411914
 0001:00010937       loc_411937
 0001:0001094C       unknown_libname_175
 0001:00010958       sub_411958
 0001:00010960       Forms::TCustomForm::IsForm(void)
 0001:00010968       sub_411968
 0001:00010984       locret_411984
 0001:00010988       sub_411988
 0001:000109A2       locret_4119A2
 0001:000109A4       sub_4119A4
 0001:000109C0       locret_4119C0
 0001:000109C4       sub_4119C4
 0001:000109DE       locret_4119DE
 0001:000109E0       sub_4119E0
 0001:000109E8       sub_4119E8
 0001:00010A04       locret_411A04
 0001:00010A08       loc_411A08
 0001:00010A20       locret_411A20
 0001:00010A24       Controls::TControl::GetMouseCapture(void)
 0001:00010A34       Controls::TControl::SetMouseCapture(bool)
 0001:00010A52       loc_411A52
 0001:00010A59       loc_411A59
 0001:00010A5C       sub_411A5C
 0001:00010A6C       sub_411A6C
 0001:00010A9D       loc_411A9D
 0001:00010AA4       loc_411AA4
 0001:00010AE6       loc_411AE6
 0001:00010AEC       sub_411AEC
 0001:00010B08       loc_411B08
 0001:00010B0F       locret_411B0F
 0001:00010B10       sub_411B10
 0001:00010B41       loc_411B41
 0001:00010B74       sub_411B74
 0001:00010BA3       loc_411BA3
 0001:00010BE7       loc_411BE7
 0001:00010BEB       loc_411BEB
 0001:00010BEF       loc_411BEF
 0001:00010BFC       sub_411BFC
 0001:00010C21       loc_411C21
 0001:00010C61       loc_411C61
 0001:00010C65       loc_411C65
 0001:00010C67       loc_411C67
 0001:00010C80       loc_411C80
 0001:00010C88       sub_411C88
 0001:00010C98       sub_411C98
 0001:00010CA6       locret_411CA6
 0001:00010CA8       sub_411CA8
 0001:00010CD5       loc_411CD5
 0001:00010D6B       loc_411D6B
 0001:00010D81       loc_411D81
 0001:00010D88       loc_411D88
 0001:00010D98       loc_411D98
 0001:00010DA0       sub_411DA0
 0001:00010DCF       loc_411DCF
 0001:00010E1C       loc_411E1C
 0001:00010E2D       loc_411E2D
 0001:00010E34       nullsub_17
 0001:00010E38       TControl::Dragging
 0001:00010E44       sub_411E44
 0001:00010E77       loc_411E77
 0001:00010E7A       loc_411E7A
 0001:00010E80       TCustomSocket::Error
 0001:00010E9C       loc_411E9C
 0001:00010EA4       TCustomProvider::DoAfterRowRequest
 0001:00010EC1       loc_411EC1
 0001:00010EC4       sub_411EC4
 0001:00010EE9       loc_411EE9
 0001:00010EF0       sub_411EF0
 0001:00010F1A       loc_411F1A
 0001:00010F38       loc_411F38
 0001:00010F66       loc_411F66
 0001:00010F7C       loc_411F7C
 0001:00010F84       sub_411F84
 0001:00010FA7       loc_411FA7
 0001:00010FB0       nullsub_18
 0001:00010FB4       sub_411FB4
 0001:00010FE9       loc_411FE9
 0001:00011010       loc_412010
 0001:00011013       loc_412013
 0001:00011027       loc_412027
 0001:00011037       loc_412037
 0001:00011048       loc_412048
 0001:0001104E       loc_41204E
 0001:00011052       loc_412052
 0001:0001105B       loc_41205B
 0001:00011060       sub_412060
 0001:00011076       loc_412076
 0001:00011081       loc_412081
 0001:00011086       loc_412086
 0001:0001109E       loc_41209E
 0001:000110AC       loc_4120AC
 0001:000110B8       loc_4120B8
 0001:000110CD       loc_4120CD
 0001:000110D4       dword_4120D4
 0001:000110D8       sub_4120D8
 0001:000110EC       loc_4120EC
 0001:000110F8       sub_4120F8
 0001:0001111C       loc_41211C
 0001:00011128       Controls::TControl::DefineProperties(Classes::TFiler *)
 0001:0001116C       aIscontrol
 0001:00011178       sub_412178
 0001:00011192       locret_412192
 0001:00011194       sub_412194
 0001:000111AE       locret_4121AE
 0001:000111B0       sub_4121B0
 0001:000111D7       loc_4121D7
 0001:000111E0       sub_4121E0
 0001:00011217       loc_412217
 0001:00011220       sub_412220
 0001:00011247       loc_412247
 0001:00011251       loc_412251
 0001:00011268       byte_412268
 0001:0001126C       Controls::TControl::WMNCLButtonDown(Messages::TWMNCHitMessage &)
 0001:00011288       sub_412288
 0001:000112B0       loc_4122B0
 0001:000112C1       loc_4122C1
 0001:000112D8       unknown_libname_312
 0001:000112DC       sub_4122DC
 0001:000112E0       sub_4122E0
 0001:000112F7       loc_4122F7
 0001:00011346       loc_412346
 0001:0001134D       loc_41234D
 0001:00011354       Controls::TControl::WMRButtonDown(Messages::TWMMouse &)
 0001:00011378       byte_412378
 0001:0001137C       Controls::TControl::WMRButtonDblClk(Messages::TWMMouse &)
 0001:000113A0       unknown_libname_313
 0001:000113A4       Controls::TControl::WMMButtonDown(Messages::TWMMouse &)
 0001:000113C8       byte_4123C8
 0001:000113CC       Controls::TControl::WMMButtonDblClk(Messages::TWMMouse &)
 0001:000113F0       unknown_libname_314
 0001:000113F4       sub_4123F4
 0001:00011415       loc_412415
 0001:0001141C       sub_41241C
 0001:00011450       loc_412450
 0001:00011454       Qcontrols::TControl::MouseUp(Qcontrols::TMouseButton,System::Set<Classes::Classes__1,(uchar)0,(uchar)6>,int,int)
 0001:0001147B       loc_41247B
 0001:00011484       sub_412484
 0001:000114B5       loc_4124B5
 0001:000114BC       sub_4124BC
 0001:000114DE       loc_4124DE
 0001:0001151E       loc_41251E
 0001:00011530       sub_412530
 0001:00011558       Controls::TControl::WMMButtonUp(Messages::TWMMouse &)
 0001:00011578       sub_412578
 0001:000115AC       loc_4125AC
 0001:000115B0       sub_4125B0
 0001:000115BC       loc_4125BC
 0001:000115C8       loc_4125C8
 0001:000115CC       loc_4125CC
 0001:000115CE       loc_4125CE
 0001:000115D5       locret_4125D5
 0001:000115D8       sub_4125D8
 0001:000115E0       sub_4125E0
 0001:000115E8       sub_4125E8
 0001:000115F0       sub_4125F0
 0001:0001160A       loc_41260A
 0001:0001160C       sub_41260C
 0001:00011626       loc_412626
 0001:00011628       sub_412628
 0001:00011642       loc_412642
 0001:00011644       unknown_libname_443
 0001:0001164C       sub_41264C
 0001:00011662       locret_412662
 0001:00011664       sub_412664
 0001:0001167A       locret_41267A
 0001:0001167C       Controls::TControl::CMDesignHitTest(Messages::TWMMouse &)
 0001:00011684       Controls::TWinControl::TWinControl(Classes::TComponent *)
 0001:00011696       loc_412696
 0001:000116F4       loc_4126F4
 0001:000116FC       sub_4126FC
 0001:00011719       loc_412719
 0001:00011729       loc_412729
 0001:00011734       loc_412734
 0001:0001175D       loc_41275D
 0001:00011777       loc_412777
 0001:0001178B       loc_41278B
 0001:00011794       sub_412794
 0001:000117F1       loc_4127F1
 0001:0001181A       loc_41281A
 0001:0001181E       loc_41281E
 0001:00011829       loc_412829
 0001:0001183E       loc_41283E
 0001:00011842       loc_412842
 0001:0001184F       loc_41284F
 0001:00011858       loc_412858
 0001:0001185F       loc_41285F
 0001:00011868       Controls::TWinControl::ReadState(Classes::TReader *)
 0001:0001189F       loc_41289F
 0001:000118A8       loc_4128A8
 0001:000118AF       loc_4128AF
 0001:000118D1       loc_4128D1
 0001:000118E0       sub_4128E0
 0001:000118FF       loc_4128FF
 0001:0001190A       loc_41290A
 0001:0001191D       loc_41291D
 0001:00011928       loc_412928
 0001:00011939       loc_412939
 0001:00011940       Controls::_16616
 0001:00011946       locret_412946
 0001:00011948       sub_412948
 0001:00011964       loc_412964
 0001:00011972       loc_412972
 0001:00011980       loc_412980
 0001:0001198D       loc_41298D
 0001:00011999       loc_412999
 0001:000119AD       off_4129AD
 0001:000119C5       loc_4129C5
 0001:00011A05       loc_412A05
 0001:00011A42       loc_412A42
 0001:00011A7E       loc_412A7E
 0001:00011AB9       loc_412AB9
 0001:00011AD6       loc_412AD6
 0001:00011ADC       sub_412ADC
 0001:00011B20       loc_412B20
 0001:00011B3F       loc_412B3F
 0001:00011B59       loc_412B59
 0001:00011B83       loc_412B83
 0001:00011B8F       loc_412B8F
 0001:00011B90       loc_412B90
 0001:00011BB8       loc_412BB8
 0001:00011BC7       loc_412BC7
 0001:00011BCD       loc_412BCD
 0001:00011BE3       loc_412BE3
 0001:00011C04       loc_412C04
 0001:00011C0C       Controls::_16619
 0001:00011C26       loc_412C26
 0001:00011C3F       loc_412C3F
 0001:00011C41       loc_412C41
 0001:00011C48       sub_412C48
 0001:00011CB9       loc_412CB9
 0001:00011CC2       loc_412CC2
 0001:00011CC9       loc_412CC9
 0001:00011CD0       sub_412CD0
 0001:00011CFE       loc_412CFE
 0001:00011D39       loc_412D39
 0001:00011D49       loc_412D49
 0001:00011D50       loc_412D50
 0001:00011D58       sub_412D58
 0001:00011D60       sub_412D60
 0001:00011D7C       locret_412D7C
 0001:00011D80       sub_412D80
 0001:00011D88       sub_412D88
 0001:00011D8A       loc_412D8A
 0001:00011D8D       loc_412D8D
 0001:00011D95       loc_412D95
 0001:00011D9C       Controls::TWinControl::RemoveFocus(bool)
 0001:00011DB6       loc_412DB6
 0001:00011DBC       sub_412DBC
 0001:00011DF2       loc_412DF2
 0001:00011DFF       loc_412DFF
 0001:00011E02       loc_412E02
 0001:00011E08       sub_412E08
 0001:00011E3A       loc_412E3A
 0001:00011E47       loc_412E47
 0001:00011E50       sub_412E50
 0001:00011ECE       loc_412ECE
 0001:00011EE0       loc_412EE0
 0001:00011EE9       loc_412EE9
 0001:00011EEC       sub_412EEC
 0001:00011F17       loc_412F17
 0001:00011F2E       loc_412F2E
 0001:00011F54       sub_412F54
 0001:00011F64       loc_412F64
 0001:00011F66       loc_412F66
 0001:00011F73       loc_412F73
 0001:00011F84       sub_412F84
 0001:00011F93       loc_412F93
 0001:00011FA0       loc_412FA0
 0001:00011FA4       Qcontrols::TWidgetControl::Broadcast(void *)
 0001:00011FBD       loc_412FBD
 0001:00011FD7       loc_412FD7
 0001:00011FDC       Controls::TWinControl::NotifyControls(ushort)
 0001:00012004       sub_413004
 0001:0001202E       loc_41302E
 0001:0001203C       loc_41303C
 0001:00012040       Controls::TWinControl::CreateParams(Controls::TCreateParams &)
 0001:0001208A       loc_41308A
 0001:0001209D       loc_41309D
 0001:000120AD       loc_4130AD
 0001:000120DB       loc_4130DB
 0001:00012130       loc_413130
 0001:00012139       loc_413139
 0001:00012140       loc_413140
 0001:00012148       sub_413148
 0001:0001219A       loc_41319A
 0001:000121D4       loc_4131D4
 0001:000121E8       loc_4131E8
 0001:00012226       loc_413226
 0001:00012254       loc_413254
 0001:00012288       sub_413288
 0001:000122CC       sub_4132CC
 0001:000122EE       loc_4132EE
 0001:0001230D       loc_41330D
 0001:00012320       dword_413320
 0001:00012324       sub_413324
 0001:00012334       sub_413334
 0001:0001235A       loc_41335A
 0001:00012375       loc_413375
 0001:00012377       loc_413377
 0001:0001237C       sub_41337C
 0001:000123E3       loc_4133E3
 0001:000123E8       sub_4133E8
 0001:0001240B       loc_41340B
 0001:00012421       loc_413421
 0001:00012428       loc_413428
 0001:0001242C       sub_41342C
 0001:00012469       loc_413469
 0001:0001246C       sub_41346C
 0001:00012493       loc_413493
 0001:0001249C       loc_41349C
 0001:000124A0       loc_4134A0
 0001:000124A2       loc_4134A2
 0001:000124BF       loc_4134BF
 0001:000124D7       loc_4134D7
 0001:000124F0       loc_4134F0
 0001:0001253F       loc_41353F
 0001:0001255C       loc_41355C
 0001:00012564       sub_413564
 0001:0001257A       loc_41357A
 0001:0001258A       loc_41358A
 0001:00012591       loc_413591
 0001:00012594       sub_413594
 0001:000125CF       loc_4135CF
 0001:000125DA       loc_4135DA
 0001:000125E1       loc_4135E1
 0001:000125EB       loc_4135EB
 0001:00012602       loc_413602
 0001:00012608       sub_413608
 0001:00012631       loc_413631
 0001:00012688       loc_413688
 0001:000126B2       loc_4136B2
 0001:000126BC       loc_4136BC
 0001:000126BE       loc_4136BE
 0001:000126C8       Controls::TWinControl::IsControlMouseMsg(Messages::TWMMouse &)
 0001:00012701       loc_413701
 0001:0001271C       loc_41371C
 0001:0001274D       loc_41374D
 0001:00012754       sub_413754
 0001:0001277F       loc_41377F
 0001:0001279C       loc_41379C
 0001:000127C3       loc_4137C3
 0001:000127D2       loc_4137D2
 0001:00012816       loc_413816
 0001:00012825       loc_413825
 0001:00012832       loc_413832
 0001:0001286A       loc_41386A
 0001:00012873       loc_413873
 0001:0001287C       sub_41387C
 0001:000128AC       loc_4138AC
 0001:000128C6       loc_4138C6
 0001:00012905       loc_413905
 0001:00012922       loc_413922
 0001:0001292B       loc_41392B
 0001:00012930       Controls::_16927
 0001:0001295D       loc_41395D
 0001:00012964       Controls::TWinControl::PaintHandler(Messages::TWMPaint &)
 0001:00012991       loc_413991
 0001:000129BA       loc_4139BA
 0001:000129DE       loc_4139DE
 0001:00012A00       loc_413A00
 0001:00012A2A       loc_413A2A
 0001:00012A2E       loc_413A2E
 0001:00012A3E       loc_413A3E
 0001:00012A48       loc_413A48
 0001:00012A61       loc_413A61
 0001:00012A7C       loc_413A7C
 0001:00012A7D       loc_413A7D
 0001:00012A84       loc_413A84
 0001:00012A8C       TWinControl::PaintWindow
 0001:00012AB4       sub_413AB4
 0001:00012AE8       loc_413AE8
 0001:00012AFF       loc_413AFF
 0001:00012B24       loc_413B24
 0001:00012B5A       loc_413B5A
 0001:00012BA2       loc_413BA2
 0001:00012BAD       loc_413BAD
 0001:00012BCE       loc_413BCE
 0001:00012C0E       loc_413C0E
 0001:00012CA8       loc_413CA8
 0001:00012CB3       loc_413CB3
 0001:00012CBC       sub_413CBC
 0001:00012CD9       loc_413CD9
 0001:00012CE8       unknown_libname_444
 0001:00012D05       loc_413D05
 0001:00012D08       Controls::TWinControl::WMNotify(Messages::TWMNotify &)
 0001:00012D27       loc_413D27
 0001:00012D2C       Controls::TWinControl::WMSysColorChange(Messages::TWMNoParams &)
 0001:00012D48       Controls::TWinControl::WMWinIniChange(Messages::TMessage &)
 0001:00012D5C       Controls::TWinControl::WMFontChange(Messages::TMessage &)
 0001:00012D6C       Controls::TWinControl::WMTimeChange(Messages::TMessage &)
 0001:00012D7C       unknown_libname_445
 0001:00012D99       loc_413D99
 0001:00012D9C       unknown_libname_446
 0001:00012DB9       loc_413DB9
 0001:00012DBC       unknown_libname_447
 0001:00012DDC       loc_413DDC
 0001:00012DE0       unknown_libname_448
 0001:00012E00       loc_413E00
 0001:00012E04       unknown_libname_449
 0001:00012E24       loc_413E24
 0001:00012E28       unknown_libname_450
 0001:00012E48       loc_413E48
 0001:00012E4C       sub_413E4C
 0001:00012E88       sub_413E88
 0001:00012EAE       loc_413EAE
 0001:00012EB2       loc_413EB2
 0001:00012EB4       loc_413EB4
 0001:00012ED2       loc_413ED2
 0001:00012ED6       loc_413ED6
 0001:00012ED8       loc_413ED8
 0001:00012EE7       loc_413EE7
 0001:00012F0A       loc_413F0A
 0001:00012F11       loc_413F11
 0001:00012F18       sub_413F18
 0001:00012F38       sub_413F38
 0001:00012F4C       sub_413F4C
 0001:00012F85       loc_413F85
 0001:00012FBB       loc_413FBB
 0001:00012FC4       loc_413FC4
 0001:00012FE5       loc_413FE5
 0001:0001301D       loc_41401D
 0001:00013026       loc_414026
 0001:00013030       sub_414030
 0001:0001304A       locret_41404A
 0001:0001304C       sub_41404C
 0001:00013066       locret_414066
 0001:00013068       sub_414068
 0001:0001308D       loc_41408D
 0001:00013090       sub_414090
 0001:000130C3       loc_4140C3
 0001:000130EE       loc_4140EE
 0001:00013112       loc_414112
 0001:00013116       loc_414116
 0001:00013120       byte_414120
 0001:00013124       unknown_libname_451
 0001:00013140       loc_414140
 0001:00013144       unknown_libname_452
 0001:00013160       loc_414160
 0001:00013164       sub_414164
 0001:00013189       loc_414189
 0001:0001318C       sub_41418C
 0001:000131BF       loc_4141BF
 0001:000131E4       loc_4141E4
 0001:000131E8       loc_4141E8
 0001:000131F0       unknown_libname_453
 0001:0001320C       loc_41420C
 0001:00013210       unknown_libname_454
 0001:0001322C       loc_41422C
 0001:00013230       sub_414230
 0001:0001324D       loc_41424D
 0001:00013250       sub_414250
 0001:00013283       loc_414283
 0001:0001329D       loc_41429D
 0001:000132A1       loc_4142A1
 0001:000132AC       unknown_libname_455
 0001:000132C8       loc_4142C8
 0001:000132CC       sub_4142CC
 0001:00013333       loc_414333
 0001:0001333C       loc_41433C
 0001:00013340       unknown_libname_456
 0001:0001335D       loc_41435D
 0001:00013360       Controls::TWinControl::WMParentNotify(Messages::TWMParentNotify &)
 0001:00013377       loc_414377
 0001:00013385       loc_414385
 0001:0001338E       loc_41438E
 0001:00013394       unknown_libname_457
 0001:000133B1       loc_4143B1
 0001:000133B4       sub_4143B4
 0001:000133E8       sub_4143E8
 0001:00013404       sub_414404
 0001:00013418       loc_414418
 0001:00013420       sub_414420
 0001:00013446       loc_414446
 0001:00013472       loc_414472
 0001:0001347C       sub_41447C
 0001:000134A0       sub_4144A0
 0001:000134C0       sub_4144C0
 0001:000134D8       sub_4144D8
 0001:000134E4       sub_4144E4
 0001:000134F0       Controls::TWinControl::CMDesignHitTest(Messages::TWMMouse &)
 0001:0001350C       loc_41450C
 0001:00013510       sub_414510
 0001:0001351E       locret_41451E
 0001:00013520       sub_414520
 0001:00013528       sub_414528
 0001:00013530       sub_414530
 0001:00013538       sub_414538
 0001:00013550       loc_414550
 0001:0001355C       loc_41455C
 0001:00013563       loc_414563
 0001:00013568       sub_414568
 0001:00013590       sub_414590
 0001:000135A8       loc_4145A8
 0001:000135CB       loc_4145CB
 0001:000135D0       sub_4145D0
 0001:000135F8       sub_4145F8
 0001:00013625       loc_414625
 0001:00013634       Controls::TWinControl::CMCursorChanged(Messages::TMessage &)
 0001:0001366D       loc_41466D
 0001:00013674       sub_414674
 0001:000136A5       loc_4146A5
 0001:000136B4       sub_4146B4
 0001:000136D7       loc_4146D7
 0001:000136DC       sub_4146DC
 0001:000136E4       sub_4146E4
 0001:000136EC       sub_4146EC
 0001:000136F4       sub_4146F4
 0001:000136FC       Controls::TWinControl::CMDrag(Controls::TCMDrag &)
 0001:00013717       loc_414717
 0001:00013729       loc_414729
 0001:0001374B       loc_41474B
 0001:00013754       sub_414754
 0001:00013762       locret_414762
 0001:00013764       sub_414764
 0001:0001377D       loc_41477D
 0001:0001379B       loc_41479B
 0001:000137A2       loc_4147A2
 0001:000137C9       loc_4147C9
 0001:000137E2       loc_4147E2
 0001:000137EC       Controls::TWinControl::CNKeyDown(Messages::TWMKey &)
 0001:0001384C       loc_41484C
 0001:0001385B       loc_41485B
 0001:00013862       loc_414862
 0001:00013869       loc_414869
 0001:0001386E       loc_41486E
 0001:000138B9       loc_4148B9
 0001:000138BE       loc_4148BE
 0001:000138C4       Controls::TWinControl::CNKeyUp(Messages::TWMKey &)
 0001:000138F0       loc_4148F0
 0001:000138FD       loc_4148FD
 0001:00013911       loc_414911
 0001:00013918       Controls::TWinControl::CNChar(Messages::TWMKey &)
 0001:0001395C       loc_41495C
 0001:00013961       loc_414961
 0001:00013964       Controls::TWinControl::CNSysKeyDown(Messages::TWMKey &)
 0001:000139B6       loc_4149B6
 0001:000139BB       loc_4149BB
 0001:000139C0       Controls::TWinControl::CNSysChar(Messages::TWMKey &)
 0001:000139EF       loc_4149EF
 0001:000139F4       sub_4149F4
 0001:00013A21       loc_414A21
 0001:00013A58       loc_414A58
 0001:00013AB3       loc_414AB3
 0001:00013ABA       loc_414ABA
 0001:00013AC4       Controls::TWinControl::ScaleControls(int,int)
 0001:00013AE5       loc_414AE5
 0001:00013B02       loc_414B02
 0001:00013B0C       Controls::TWinControl::ChangeScale(int,int)
 0001:00013B54       loc_414B54
 0001:00013B5D       loc_414B5D
 0001:00013B64       loc_414B64
 0001:00013B6C       sub_414B6C
 0001:00013B90       loc_414B90
 0001:00013B94       loc_414B94
 0001:00013B96       loc_414B96
 0001:00013BBB       loc_414BBB
 0001:00013BCC       loc_414BCC
 0001:00013BF0       loc_414BF0
 0001:00013BFF       loc_414BFF
 0001:00013C30       loc_414C30
 0001:00013C34       loc_414C34
 0001:00013C44       sub_414C44
 0001:00013C51       locret_414C51
 0001:00013C54       sub_414C54
 0001:00013C74       loc_414C74
 0001:00013C99       loc_414C99
 0001:00013CA0       loc_414CA0
 0001:00013CBF       loc_414CBF
 0001:00013CD3       loc_414CD3
 0001:00013CE8       loc_414CE8
 0001:00013CFD       loc_414CFD
 0001:00013D0F       loc_414D0F
 0001:00013D26       loc_414D26
 0001:00013D2C       sub_414D2C
 0001:00013D45       loc_414D45
 0001:00013D47       loc_414D47
 0001:00013D56       loc_414D56
 0001:00013D62       loc_414D62
 0001:00013D88       loc_414D88
 0001:00013D8C       Controls::TWinControl::GetDeviceContext(uint &)
 0001:00013DAB       loc_414DAB
 0001:00013DB8       loc_414DB8
 0001:00013DD2       loc_414DD2
 0001:00013DE0       sub_414DE0
 0001:00013E09       loc_414E09
 0001:00013E0C       sub_414E0C
 0001:00013E26       loc_414E26
 0001:00013E28       sub_414E28
 0001:00013E3C       sub_414E3C
 0001:00013E74       sub_414E74
 0001:00013E8D       loc_414E8D
 0001:00013EA0       loc_414EA0
 0001:00013EA2       loc_414EA2
 0001:00013EA8       Categorybuttons::TButtonItem::ScrollIntoView(void)
 0001:00013EBC       sub_414EBC
 0001:00013ED5       loc_414ED5
 0001:00013ED9       loc_414ED9
 0001:00013EE0       sub_414EE0
 0001:00013EF8       loc_414EF8
 0001:00013EFF       loc_414EFF
 0001:00013F04       sub_414F04
 0001:00013F18       Controls::TWinControl::GetClientOrigin(void)
 0001:00013F38       Controls::TWinControl::GetClientRect(void)
 0001:00013F50       sub_414F50
 0001:00013F73       locret_414F73
 0001:00013F74       sub_414F74
 0001:00013F80       sub_414F80
 0001:00013FA2       locret_414FA2
 0001:00013FA4       sub_414FA4
 0001:00013FBF       loc_414FBF
 0001:00013FC8       sub_414FC8
 0001:00013FF1       loc_414FF1
 0001:00013FFB       loc_414FFB
 0001:0001401C       loc_41501C
 0001:00014024       sub_415024
 0001:00014034       loc_415034
 0001:0001403C       sub_41503C
 0001:00014077       loc_415077
 0001:00014086       loc_415086
 0001:00014096       loc_415096
 0001:0001409C       sub_41509C
 0001:000140A8       sub_4150A8
 0001:000140E8       loc_4150E8
 0001:000140F5       loc_4150F5
 0001:0001412C       loc_41512C
 0001:00014158       sub_415158
 0001:0001417B       loc_41517B
 0001:000141A7       loc_4151A7
 0001:000141B0       sub_4151B0
 0001:00014222       loc_415222
 0001:00014227       loc_415227
 0001:0001422A       loc_41522A
 0001:0001423D       loc_41523D
 0001:00014247       loc_415247
 0001:00014248       loc_415248
 0001:0001426E       loc_41526E
 0001:00014279       loc_415279
 0001:0001427C       loc_41527C
 0001:00014287       loc_415287
 0001:00014294       loc_415294
 0001:0001429F       loc_41529F
 0001:000142A6       loc_4152A6
 0001:000142B4       sub_4152B4
 0001:000142D8       loc_4152D8
 0001:000142E0       sub_4152E0
 0001:00014308       loc_415308
 0001:00014322       loc_415322
 0001:00014326       loc_415326
 0001:00014330       sub_415330
 0001:00014352       loc_415352
 0001:0001436B       loc_41536B
 0001:00014370       sub_415370
 0001:00014382       loc_415382
 0001:000143BD       loc_4153BD
 0001:000143C4       sub_4153C4
 0001:000143E9       loc_4153E9
 0001:000143F0       sub_4153F0
 0001:00014431       loc_415431
 0001:00014442       loc_415442
 0001:00014449       loc_415449
 0001:0001444C       nullsub_19
 0001:00014450       sub_415450
 0001:00014462       loc_415462
 0001:000144B6       loc_4154B6
 0001:000144C0       aMsSansSerif
 0001:000144D0       sub_4154D0
 0001:000144F8       loc_4154F8
 0001:000144FC       sub_4154FC
 0001:00014576       loc_415576
 0001:0001457F       loc_41557F
 0001:00014586       loc_415586
 0001:00014590       sub_415590
 0001:000145A2       loc_4155A2
 0001:000145E3       loc_4155E3
 0001:000145F0       loc_4155F0
 0001:000145F4       sub_4155F4
 0001:000145FC       sub_4155FC
 0001:00014670       loc_415670
 0001:00014679       loc_415679
 0001:00014680       loc_415680
 0001:00014688       sub_415688
 0001:000146D6       loc_4156D6
 0001:000146FA       loc_4156FA
 0001:00014705       loc_415705
 0001:00014712       loc_415712
 0001:00014738       sub_415738
 0001:0001474A       loc_41574A
 0001:00014785       loc_415785
 0001:0001478C       sub_41578C
 0001:000147B1       loc_4157B1
 0001:000147B8       loc_4157B8
 0001:000147C0       sub_4157C0
 0001:000147F8       loc_4157F8
 0001:00014809       loc_415809
 0001:00014810       loc_415810
 0001:00014814       nullsub_20
 0001:00014818       ImgList::_16398
 0001:0001482C       loc_41582C
 0001:00014830       loc_415830
 0001:00014835       locret_415835
 0001:00014838       Controls::_17135
 0001:00014878       sub_415878
 0001:00014880       sub_415880
 0001:0001488B       locret_41588B
 0001:0001488C       sub_41588C
 0001:0001489C       sub_41589C
 0001:000148E4       loc_4158E4
 0001:000148F7       loc_4158F7
 0001:000148FC       TCustomImageList::SetBkColor
 0001:00014924       loc_415924
 0001:00014927       loc_415927
 0001:00014938       sub_415938
 0001:000149E2       loc_4159E2
 0001:000149EC       loc_4159EC
 0001:000149F3       loc_4159F3
 0001:000149F8       sub_4159F8
 0001:00014A0D       locret_415A0D
 0001:00014A10       sub_415A10
 0001:00014A41       loc_415A41
 0001:00014A43       loc_415A43
 0001:00014A4C       sub_415A4C
 0001:00014A7A       loc_415A7A
 0001:00014A9E       loc_415A9E
 0001:00014AA8       sub_415AA8
 0001:00014B00       loc_415B00
 0001:00014B0C       sub_415B0C
 0001:00014B2E       loc_415B2E
 0001:00014B30       sub_415B30
 0001:00014B6B       loc_415B6B
 0001:00014B6D       loc_415B6D
 0001:00014B74       sub_415B74
 0001:00014B89       loc_415B89
 0001:00014B8C       Controls::TDragImageList::HideDragImage(void)
 0001:00014BA1       loc_415BA1
 0001:00014BA4       sub_415BA4
 0001:00014BE4       loc_415BE4
 0001:00014BE6       loc_415BE6
 0001:00014BEC       loc_415BEC
 0001:00014C1C       Controls::_17107
 0001:00014D04       aDelphi8x
 0001:00014D10       aControlofs8x8x
 0001:00014D24       sub_415D24
 0001:00014D44       byte_415D44
 0001:00014D8C       dword_415D8C
 0001:00014DB8       unknown_libname_104
 0001:00014DD0       dword_415DD0
 0001:00014E08       dword_415E08
 0001:00014E44       unknown_libname_459
 0001:00014E60       dword_415E60
 0001:00014EA0       dword_415EA0
 0001:00014EFC       dword_415EFC
 0001:00015038       off_416038
 0001:00015044       dword_416044
 0001:0001504C       dword_41604C
 0001:0001505C       tiTGraphicsObject
 0001:00015078       aGraphics
 0001:000150B8       off_4160B8
 0001:000150C4       dword_4160C4
 0001:000150CC       dword_4160CC
 0001:0001513C       unknown_libname_319
 0001:000151DC       off_4161DC
 0001:000151E8       dword_4161E8
 0001:000151F0       tiTPen
 0001:000152C0       off_4162C0
 0001:000152CC       dword_4162CC
 0001:000152D4       tiTBrush
 0001:00015350       unknown_libname_322
 0001:00015368       off_416368
 0001:00015380       dword_416380
 0001:00015388       tiTCanvas
 0001:000153FC       unknown_libname_323
 0001:0001545C       off_41645C
 0001:000154A8       dword_4164A8
 0001:000154B4       tiTGraphic
 0001:000154C8       aGraphics_0
 0001:000154D4       sub_4164D4
 0001:000154DC       sub_4164DC
 0001:000154E4       sub_4164E4
 0001:000154EC       sub_4164EC
 0001:000154F4       sub_4164F4
 0001:000154FC       sub_4164FC
 0001:00015504       sub_416504
 0001:0001550C       sub_41650C
 0001:00015514       sub_416514
 0001:0001551C       sub_41651C
 0001:00015558       off_416558
 0001:0001555C       dword_41655C
 0001:0001556C       sub_41656C
 0001:000155A8       off_4165A8
 0001:000155AC       dword_4165AC
 0001:000155EC       off_4165EC
 0001:00015638       dword_416638
 0001:00015640       tiTIcon
 0001:00015690       dword_416690
 0001:000156E3       byte_4166E3
 0001:000156F4       Graphics::_16469
 0001:000156FA       loc_4166FA
 0001:00015708       sub_416708
 0001:00015714       loc_416714
 0001:0001571F       loc_41671F
 0001:00015723       loc_416723
 0001:0001572C       sub_41672C
 0001:00015738       loc_416738
 0001:0001574A       locret_41674A
 0001:0001574C       sub_41674C
 0001:00015766       loc_416766
 0001:00015768       loc_416768
 0001:00015784       loc_416784
 0001:000157BC       loc_4167BC
 0001:000157C8       sub_4167C8
 0001:000157EA       loc_4167EA
 0001:000157F8       loc_4167F8
 0001:000157FA       loc_4167FA
 0001:00015804       loc_416804
 0001:00015812       loc_416812
 0001:00015818       sub_416818
 0001:00015845       loc_416845
 0001:00015854       sub_416854
 0001:0001587A       loc_41687A
 0001:00015880       sub_416880
 0001:00015888       loc_416888
 0001:000158A2       loc_4168A2
 0001:000158A8       loc_4168A8
 0001:000158AC       TeeURL::_16408
 0001:000158BE       loc_4168BE
 0001:000158D3       loc_4168D3
 0001:000158F0       Graphics::_16465
 0001:000158F8       aClblack
 0001:00015900       dword_416900
 0001:00015914       dword_416914
 0001:00015958       dword_416958
 0001:0001598C       dword_41698C
 0001:000159C0       dword_4169C0
 0001:00015A30       dword_416A30
 0001:00015A50       aClinactivecapt
 0001:00015A64       dword_416A64
 0001:00015A88       dword_416A88
 0001:00015ACC       dword_416ACC
 0001:00015B18       dword_416B18
 0001:00015BB4       aClinactivecapt_0
 0001:00015BCC       dword_416BCC
 0001:00015BFC       dword_416BFC
 0001:00015C38       dword_416C38
 0001:00015C48       Graphics::ColorToRGB(Graphics::TColor)
 0001:00015C57       locret_416C57
 0001:00015C58       sub_416C58
 0001:00015C67       loc_416C67
 0001:00015C79       loc_416C79
 0001:00015C81       loc_416C81
 0001:00015C88       sub_416C88
 0001:00015C9A       loc_416C9A
 0001:00015CB1       loc_416CB1
 0001:00015CB9       loc_416CB9
 0001:00015CC0       loc_416CC0
 0001:00015CD1       locret_416CD1
 0001:00015CD4       sub_416CD4
 0001:00015CE2       loc_416CE2
 0001:00015D15       loc_416D15
 0001:00015D1C       sub_416D1C
 0001:00015D3A       loc_416D3A
 0001:00015D40       sub_416D40
 0001:00015D8C       loc_416D8C
 0001:00015D95       loc_416D95
 0001:00015D9C       Graphics::TFont::GetData(Graphics::TFontData &)
 0001:00015DB4       sub_416DB4
 0001:00015DC4       sub_416DC4
 0001:00015DD6       loc_416DD6
 0001:00015DD8       sub_416DD8
 0001:00015E27       loc_416E27
 0001:00015E2E       loc_416E2E
 0001:00015E83       loc_416E83
 0001:00015E89       loc_416E89
 0001:00015E8F       loc_416E8F
 0001:00015E93       loc_416E93
 0001:00015E9F       loc_416E9F
 0001:00015EAF       loc_416EAF
 0001:00015EB8       loc_416EB8
 0001:00015EBF       loc_416EBF
 0001:00015EC8       sub_416EC8
 0001:00015ED0       Graphics::TFont::SetHeight(int)
 0001:00015EF8       sub_416EF8
 0001:00015F10       sub_416F10
 0001:00015F4D       loc_416F4D
 0001:00015F54       sub_416F54
 0001:00015F70       sub_416F70
 0001:00015F90       Graphics::TFont::GetStyle(void)
 0001:00015F9C       Graphics::TFont::SetStyle(System::Set<Graphics::TFontStyle,(uchar)0,(uchar)3>)
 0001:00015FC8       Graphics::TFont::GetPitch(void)
 0001:00015FD0       Graphics::TFont::SetPitch(Graphics::TFontPitch)
 0001:00015FF8       sub_416FF8
 0001:00016006       loc_417006
 0001:0001602E       loc_41702E
 0001:00016034       sub_417034
 0001:00016052       loc_417052
 0001:00016058       sub_417058
 0001:0001608C       loc_41708C
 0001:00016095       loc_417095
 0001:0001609C       Graphics::TPen::GetData(Graphics::TPenData &)
 0001:000160B4       sub_4170B4
 0001:000160C4       loc_4170C4
 0001:000160CC       Graphics::TPen::SetColor(Graphics::TColor)
 0001:000160F4       sub_4170F4
 0001:0001612D       loc_41712D
 0001:00016138       sub_417138
 0001:0001614A       loc_41714A
 0001:0001614C       sub_41714C
 0001:00016154       Graphics::TPen::SetStyle(Graphics::TPenStyle)
 0001:0001617C       Dbxcommon::TDBXConnectionFactory::GetTraceFlags(void)
 0001:00016184       Graphics::TPen::SetWidth(int)
 0001:000161A7       loc_4171A7
 0001:000161B0       sub_4171B0
 0001:000161BE       loc_4171BE
 0001:000161E2       loc_4171E2
 0001:000161E8       sub_4171E8
 0001:00016206       loc_417206
 0001:0001620C       sub_41720C
 0001:00016234       loc_417234
 0001:00016240       Graphics::TBrush::GetData(Graphics::TBrushData &)
 0001:00016260       sub_417260
 0001:00016270       sub_417270
 0001:00016278       Graphics::TBrush::SetColor(Graphics::TColor)
 0001:0001629A       loc_41729A
 0001:000162AC       sub_4172AC
 0001:000162D5       loc_4172D5
 0001:000162E9       loc_4172E9
 0001:000162F0       loc_4172F0
 0001:000162F9       loc_4172F9
 0001:0001630A       loc_41730A
 0001:0001631F       loc_41731F
 0001:00016328       sub_417328
 0001:00016330       Graphics::TBrush::SetStyle(Graphics::TBrushStyle)
 0001:00016354       loc_417354
 0001:00016364       sub_417364
 0001:00016373       loc_417373
 0001:000163FA       loc_4173FA
 0001:00016400       byte_417400
 0001:00016404       sub_417404
 0001:0001644B       loc_41744B
 0001:00016450       Graphics::TCanvas::FillRect(Types::TRect &)
 0001:00016488       byte_417488
 0001:0001648C       Graphics::TCanvas::MoveTo(int,int)
 0001:000164B4       byte_4174B4
 0001:000164B8       sub_4174B8
 0001:000164F1       loc_4174F1
 0001:000164F3       loc_4174F3
 0001:000164F8       byte_4174F8
 0001:000164FC       sub_4174FC
 0001:00016536       loc_417536
 0001:00016538       loc_417538
 0001:00016540       byte_417540
 0001:00016544       unknown_libname_194
 0001:00016550       TCanvas::SetPen
 0001:0001655C       TCanvas::SetBrush
 0001:00016568       Graphics::TCanvas::GetPenPos(void)
 0001:00016588       byte_417588
 0001:0001658C       Graphics::TCanvas::SetPenPos(Types::TPoint &)
 0001:000165AC       Graphics::TCanvas::GetHandle(void)
 0001:000165C8       byte_4175C8
 0001:000165CC       Graphics::TCanvas::DeselectHandles(void)
 0001:0001661F       loc_41761F
 0001:00016624       byte_417624
 0001:00016628       nullsub_16
 0001:0001662C       Graphics::TCanvas::SetHandle(uint)
 0001:00016666       loc_417666
 0001:0001667B       loc_41767B
 0001:00016680       sub_417680
 0001:000166C1       loc_4176C1
 0001:000166CD       loc_4176CD
 0001:000166D9       loc_4176D9
 0001:000166E5       loc_4176E5
 0001:000166EB       loc_4176EB
 0001:000166F0       byte_4176F0
 0001:000166F4       sub_4176F4
 0001:00016705       locret_417705
 0001:00016708       sub_417708
 0001:00016719       locret_417719
 0001:0001671C       sub_41771C
 0001:00016748       sub_417748
 0001:00016778       Graphics::TCanvas::CreateBrush(void)
 0001:000167CB       loc_4177CB
 0001:000167F4       Graphics::TCanvas::FontChanged(System::TObject *)
 0001:00016810       loc_417810
 0001:00016814       Graphics::TCanvas::PenChanged(System::TObject *)
 0001:00016830       loc_417830
 0001:00016834       Graphics::TCanvas::BrushChanged(System::TObject *)
 0001:00016850       loc_417850
 0001:00016854       sub_417854
 0001:0001686C       sub_41786C
 0001:00016884       sub_417884
 0001:00016890       sub_417890
 0001:000168A8       Graphics::_16628
 0001:000168FC       loc_4178FC
 0001:00016911       loc_417911
 0001:0001693E       loc_41793E
 0001:0001694B       loc_41794B
 0001:00016957       loc_417957
 0001:0001695E       loc_41795E
 0001:000169BA       loc_4179BA
 0001:000169C8       loc_4179C8
 0001:000169E4       Graphics::_16590
 0001:000169F7       loc_4179F7
 0001:00016A01       loc_417A01
 0001:00016A04       sub_417A04
 0001:00016A0E       loc_417A0E
 0001:00016A18       sub_417A18
 0001:00016A85       loc_417A85
 0001:00016ACC       loc_417ACC
 0001:00016AF6       loc_417AF6
 0001:00016B00       loc_417B00
 0001:00016B07       loc_417B07
 0001:00016B86       loc_417B86
 0001:00016BB3       loc_417BB3
 0001:00016BBD       loc_417BBD
 0001:00016BC4       loc_417BC4
 0001:00016BD1       loc_417BD1
 0001:00016BDD       loc_417BDD
 0001:00016BE4       loc_417BE4
 0001:00016BEC       Graphics::_16609
 0001:00016C5C       loc_417C5C
 0001:00016C96       loc_417C96
 0001:00016CA3       loc_417CA3
 0001:00016CB0       loc_417CB0
 0001:00016CBC       loc_417CBC
 0001:00016CC3       loc_417CC3
 0001:00016CD6       loc_417CD6
 0001:00016CEE       loc_417CEE
 0001:00016D0A       loc_417D0A
 0001:00016D11       loc_417D11
 0001:00016D15       loc_417D15
 0001:00016D1C       loc_417D1C
 0001:00016E3C       loc_417E3C
 0001:00016E49       loc_417E49
 0001:00016E55       loc_417E55
 0001:00016E5C       loc_417E5C
 0001:00016E69       loc_417E69
 0001:00016E78       loc_417E78
 0001:00016E7F       loc_417E7F
 0001:00016E8C       loc_417E8C
 0001:00016E98       loc_417E98
 0001:00016E9F       loc_417E9F
 0001:00016EA8       sub_417EA8
 0001:00016EE6       loc_417EE6
 0001:00016EEE       loc_417EEE
 0001:00016EF6       loc_417EF6
 0001:00016EFE       loc_417EFE
 0001:00016F0C       loc_417F0C
 0001:00016F3B       loc_417F3B
 0001:00016F41       loc_417F41
 0001:00016F5C       sub_417F5C
 0001:00016F87       loc_417F87
 0001:00016F98       loc_417F98
 0001:00016FA8       sub_417FA8
 0001:00017006       loc_418006
 0001:00017030       loc_418030
 0001:00017045       loc_418045
 0001:00017053       loc_418053
 0001:0001705A       loc_41805A
 0001:00017068       nullsub_2
 0001:0001706C       Graphics::_16650
 0001:00017075       locret_418075
 0001:00017078       Graphics::_16634
 0001:0001717B       loc_41817B
 0001:00017212       loc_418212
 0001:0001723F       loc_41823F
 0001:00017246       loc_418246
 0001:00017253       loc_418253
 0001:00017266       loc_418266
 0001:0001726D       loc_41826D
 0001:00017274       sub_418274
 0001:00017282       loc_418282
 0001:0001729D       loc_41829D
 0001:000172A4       sub_4182A4
 0001:000172B9       locret_4182B9
 0001:000172BC       sub_4182BC
 0001:000172FD       loc_4182FD
 0001:00017302       loc_418302
 0001:0001730F       loc_41830F
 0001:00017314       sub_418314
 0001:00017358       Designintf::_16432
 0001:00017360       Sysutils::CompareMem(void *,void *,int)
 0001:0001737C       loc_41837C
 0001:00017380       ImgList::_16460
 0001:000173B3       loc_4183B3
 0001:000173B7       loc_4183B7
 0001:000173B9       loc_4183B9
 0001:000173C0       Imglist::TCustomImageList::Equal(Imglist::TCustomImageList *)
 0001:000173E5       loc_4183E5
 0001:000173E9       loc_4183E9
 0001:000173EB       loc_4183EB
 0001:00017404       loc_418404
 0001:0001741A       loc_41841A
 0001:0001741E       loc_41841E
 0001:00017420       loc_418420
 0001:00017428       loc_418428
 0001:0001749B       loc_41849B
 0001:000174A4       loc_4184A4
 0001:000174AB       loc_4184AB
 0001:000174B8       loc_4184B8
 0001:000174C1       loc_4184C1
 0001:000174C8       loc_4184C8
 0001:000174D4       sub_4184D4
 0001:00017513       loc_418513
 0001:0001751C       loc_41851C
 0001:00017523       loc_418523
 0001:00017528       sub_418528
 0001:0001756A       loc_41856A
 0001:00017573       loc_418573
 0001:0001757A       loc_41857A
 0001:00017580       TAdapterSubComponent::FindVariable
 0001:00017588       Webdisp::TCustomPageDispatcher::GetCanView(System::AnsiString)
 0001:00017590       sub_418590
 0001:00017598       loc_418598
 0001:000175A6       loc_4185A6
 0001:000175B0       sub_4185B0
 0001:000175C9       loc_4185C9
 0001:000175DC       loc_4185DC
 0001:000175FA       loc_4185FA
 0001:00017600       sub_418600
 0001:00017604       sub_418604
 0001:00017629       loc_418629
 0001:0001762C       sub_41862C
 0001:0001763C       loc_41863C
 0001:00017644       sub_418644
 0001:00017653       loc_418653
 0001:00017686       loc_418686
 0001:0001768C       sub_41868C
 0001:000176AE       loc_4186AE
 0001:000176B4       sub_4186B4
 0001:000176CF       loc_4186CF
 0001:000176ED       loc_4186ED
 0001:000176F8       loc_4186F8
 0001:00017703       loc_418703
 0001:0001770C       loc_41870C
 0001:00017710       Graphics::TIcon::Draw(Graphics::TCanvas *,Windows::TRect &)
 0001:00017744       byte_418744
 0001:00017748       sub_418748
 0001:00017757       loc_418757
 0001:0001775A       loc_41875A
 0001:00017760       sub_418760
 0001:00017774       Graphics::TIcon::GetHeight(void)
 0001:0001777C       Graphics::TIcon::GetWidth(void)
 0001:00017784       sub_418784
 0001:000177BD       loc_4187BD
 0001:000177C8       loc_4187C8
 0001:000177DD       loc_4187DD
 0001:000177E2       loc_4187E2
 0001:000177E9       loc_4187E9
 0001:000177F0       sub_4187F0
 0001:00017813       loc_418813
 0001:00017860       loc_418860
 0001:00017873       loc_418873
 0001:0001787D       loc_41887D
 0001:00017894       loc_418894
 0001:0001789A       loc_41889A
 0001:000178A4       sub_4188A4
 0001:0001791E       loc_41891E
 0001:00017934       loc_418934
 0001:0001794B       loc_41894B
 0001:0001795C       sub_41895C
 0001:0001799C       loc_41899C
 0001:000179B3       loc_4189B3
 0001:000179D0       sub_4189D0
 0001:000179E8       sub_4189E8
 0001:000179F4       sub_4189F4
 0001:00017A00       sub_418A00
 0001:00017A2C       sub_418A2C
 0001:00017A40       sub_418A40
 0001:00017A54       sub_418A54
 0001:00017B38       byte_418B38
 0001:00017B84       off_418B84
 0001:00017B90       dword_418B90
 0001:00017BA4       unknown_libname_327
 0001:00017CCC       off_418CCC
 0001:00017D48       dword_418D48
 0001:00017D62       word_418D62
 0001:00017D78       tiTScrollingWinControl
 0001:00017DD4       dword_418DD4
 0001:00017E10       dword_418E10
 0001:00017E6C       unknown_libname_468
 0001:00017E88       dword_418E88
 0001:00017EC4       dword_418EC4
 0001:00017F08       dword_418F08
 0001:00017F44       unknown_libname_330
 0001:00017F5C       dword_418F5C
 0001:00017FC0       dword_418FC0
 0001:00018084       unknown_libname_331
 0001:0001809C       off_41909C
 0001:00018118       dword_419118
 0001:00018222       word_419222
 0001:00018228       dword_419228
 0001:00018254       unknown_libname_332
 0001:000185F8       unknown_libname_333
 0001:00018688       unknown_libname_334
 0001:000187D0       unknown_libname_335
 0001:0001885C       unknown_libname_336
 0001:00018954       off_419954
 0001:0001897C       dword_41997C
 0001:00018984       tiTScreen
 0001:00018998       aForms
 0001:000189D4       off_4199D4
 0001:000189FC       dword_4199FC
 0001:00018A12       unknown_libname_338
 0001:00018A1E       word_419A1E
 0001:00018A2C       tiTApplication
 0001:00018A4C       sub_419A4C
 0001:00018A54       loc_419A54
 0001:00018A58       loc_419A58
 0001:00018A6C       loc_419A6C
 0001:00018A84       Forms::_16459
 0001:00018AC9       loc_419AC9
 0001:00018AD4       @DisableTaskWindows
 0001:00018B40       loc_419B40
 0001:00018B59       loc_419B59
 0001:00018B66       loc_419B66
 0001:00018B77       loc_419B77
 0001:00018B7E       loc_419B7E
 0001:00018B88       sub_419B88
 0001:00018B90       loc_419B90
 0001:00018BAA       loc_419BAA
 0001:00018BBC       loc_419BBC
 0001:00018BC0       sub_419BC0
 0001:00018C0A       loc_419C0A
 0001:00018C19       loc_419C19
 0001:00018C24       Forms::_16464
 0001:00018C58       loc_419C58
 0001:00018C60       Forms::_16465
 0001:00018C80       sub_419C80
 0001:00018C9A       loc_419C9A
 0001:00018CA4       Forms::ForegroundTask(void)
 0001:00018CD0       Forms::_16452
 0001:00018CEA       loc_419CEA
 0001:00018D0A       loc_419D0A
 0001:00018D1E       loc_419D1E
 0001:00018D3E       loc_419D3E
 0001:00018D40       loc_419D40
 0001:00018D48       sub_419D48
 0001:00018D91       loc_419D91
 0001:00018DA4       loc_419DA4
 0001:00018E99       loc_419E99
 0001:00018EAE       loc_419EAE
 0001:00018EB0       LibFileName
 0001:00018EBC       ProcName
 0001:00018ECC       aCtl3dunregiste
 0001:00018EDC       aCtl3dsubclassc
 0001:00018EF0       aCtl3dsubclassd
 0001:00018F04       aCtl3ddlgframep
 0001:00018F18       aCtl3dctlcolore
 0001:00018F28       aCtl3dautosubcl
 0001:00018F3C       aCtl3dunautosub
 0001:00018F50       aCtl3dcolorchan
 0001:00018F64       aBtnwndproc3d
 0001:00018F74       @DoneCtl3D
 0001:00018F94       locret_419F94
 0001:00018F98       Classes::_17350
 0001:00018FB8       Classes::_17351
 0001:00018FC0       Classes::MakeObjectInstance(void (*)(Messages::TMessage &))
 0001:00019011       loc_41A011
 0001:0001903C       loc_41A03C
 0001:00019058       Classes::FreeObjectInstance(void *)
 0001:0001906A       locret_41A06A
 0001:0001906C       Classes::_17356
 0001:0001907C       Classes::AllocateHWnd(void (*)(Messages::TMessage &))
 0001:000190B6       loc_41A0B6
 0001:000190CB       loc_41A0CB
 0001:000190D5       loc_41A0D5
 0001:0001911C       WindowName
 0001:00019120       sub_41A120
 0001:00019140       Forms::KeysToShiftState(ushort)
 0001:00019154       loc_41A154
 0001:0001915E       loc_41A15E
 0001:00019168       loc_41A168
 0001:00019172       loc_41A172
 0001:0001917C       loc_41A17C
 0001:0001918B       loc_41A18B
 0001:00019190       byte_41A190
 0001:00019194       Forms::KeyDataToShiftState(int)
 0001:000191AD       loc_41A1AD
 0001:000191BC       loc_41A1BC
 0001:000191C7       loc_41A1C7
 0001:000191CC       byte_41A1CC
 0001:000191D0       Forms::IsAccel(ushort,System::AnsiString)
 0001:0001922F       loc_41A22F
 0001:00019233       loc_41A233
 0001:00019235       loc_41A235
 0001:00019244       loc_41A244
 0001:00019252       loc_41A252
 0001:00019259       loc_41A259
 0001:0001926C       dword_41A26C
 0001:00019270       sub_41A270
 0001:00019276       loc_41A276
 0001:00019278       loc_41A278
 0001:00019293       loc_41A293
 0001:00019298       sub_41A298
 0001:000192CD       loc_41A2CD
 0001:000192D4       OleCtnrs::_16430
 0001:000192E6       loc_41A2E6
 0001:00019316       loc_41A316
 0001:00019320       sub_41A320
 0001:00019361       loc_41A361
 0001:0001936A       loc_41A36A
 0001:00019370       sub_41A370
 0001:00019389       loc_41A389
 0001:000193AB       loc_41A3AB
 0001:000193B4       loc_41A3B4
 0001:000193B8       sub_41A3B8
 0001:000193D1       loc_41A3D1
 0001:000193F3       loc_41A3F3
 0001:000193FC       loc_41A3FC
 0001:00019400       sub_41A400
 0001:00019439       loc_41A439
 0001:00019458       loc_41A458
 0001:0001946C       loc_41A46C
 0001:00019470       loc_41A470
 0001:00019487       loc_41A487
 0001:00019490       Forms::_16494
 0001:000194A4       loc_41A4A4
 0001:000194C4       Forms::_16477
 0001:00019507       loc_41A507
 0001:00019531       loc_41A531
 0001:00019538       Forms::TControlScrollBar::ControlSize(bool,bool)
 0001:00019592       loc_41A592
 0001:000195B2       loc_41A5B2
 0001:000195B8       Forms::TControlScrollBar::NeedsScrollBarVisible(void)
 0001:000195D0       TControlScrollBar::ScrollMessage
 0001:000195E7       off_41A5E7
 0001:00019607       loc_41A607
 0001:00019619       loc_41A619
 0001:00019629       loc_41A629
 0001:00019642       loc_41A642
 0001:0001965B       loc_41A65B
 0001:0001966A       loc_41A66A
 0001:0001967F       loc_41A67F
 0001:0001968A       loc_41A68A
 0001:00019696       loc_41A696
 0001:00019698       sub_41A698
 0001:000196AE       loc_41A6AE
 0001:000196B9       loc_41A6B9
 0001:000196BF       loc_41A6BF
 0001:000196C9       loc_41A6C9
 0001:000196CD       loc_41A6CD
 0001:000196ED       loc_41A6ED
 0001:000196FB       loc_41A6FB
 0001:00019721       loc_41A721
 0001:0001974D       loc_41A74D
 0001:00019754       Forms::TControlScrollBar::DoSetRange(int)
 0001:00019762       loc_41A762
 0001:0001976C       sub_41A76C
 0001:00019780       sub_41A780
 0001:0001978C       Forms::TControlScrollBar::SetVisible(bool)
 0001:00019798       TControlScrollBar::Update
 0001:000197B7       loc_41A7B7
 0001:000197DA       loc_41A7DA
 0001:000197FF       loc_41A7FF
 0001:00019805       loc_41A805
 0001:0001984C       sub_41A84C
 0001:0001985A       loc_41A85A
 0001:000198A8       loc_41A8A8
 0001:000198B0       sub_41A8B0
 0001:000198E0       loc_41A8E0
 0001:000198E8       sub_41A8E8
 0001:000198FC       sub_41A8FC
 0001:00019980       sub_41A980
 0001:000199A2       loc_41A9A2
 0001:000199A4       sub_41A9A4
 0001:000199C2       loc_41A9C2
 0001:000199DC       loc_41A9DC
 0001:000199E0       Idftp::TIdFTP::SetClientInfo(Idftp::TIdFTPClientIdentifier *)
 0001:000199EC       TIdLPR::SeTIdLPRControlFile
 0001:000199F8       sub_41A9F8
 0001:00019A6F       loc_41AA6F
 0001:00019AA7       loc_41AAA7
 0001:00019ACB       loc_41AACB
 0001:00019AD8       loc_41AAD8
 0001:00019AE3       loc_41AAE3
 0001:00019AEA       loc_41AAEA
 0001:00019AF0       TScrollingWinControl::AutoScrollInView
 0001:00019B05       locret_41AB05
 0001:00019B08       sub_41AB08
 0001:00019BB1       loc_41ABB1
 0001:00019BD8       loc_41ABD8
 0001:00019BF4       loc_41ABF4
 0001:00019C0D       loc_41AC0D
 0001:00019C35       loc_41AC35
 0001:00019C51       loc_41AC51
 0001:00019C5C       sub_41AC5C
 0001:00019C84       loc_41AC84
 0001:00019CC7       loc_41ACC7
 0001:00019CE7       loc_41ACE7
 0001:00019D00       Forms::TScrollingWinControl::ChangeScale(int,int)
 0001:00019D24       sub_41AD24
 0001:00019D58       loc_41AD58
 0001:00019D63       loc_41AD63
 0001:00019D6A       loc_41AD6A
 0001:00019D78       sub_41AD78
 0001:00019D8A       loc_41AD8A
 0001:00019D90       sub_41AD90
 0001:00019DA2       loc_41ADA2
 0001:00019DA8       sub_41ADA8
 0001:00019DC0       loc_41ADC0
 0001:00019E45       loc_41AE45
 0001:00019E52       loc_41AE52
 0001:00019E5D       loc_41AE5D
 0001:00019E64       loc_41AE64
 0001:00019E91       loc_41AE91
 0001:00019E9B       loc_41AE9B
 0001:00019EB2       loc_41AEB2
 0001:00019EC8       loc_41AEC8
 0001:00019ED8       loc_41AED8
 0001:00019EE4       TCustomForm::`...'
 0001:00019EF6       loc_41AEF6
 0001:00019FE1       loc_41AFE1
 0001:00019FE8       word_41AFE8
 0001:00019FEC       byte_41AFEC
 0001:00019FF0       sub_41AFF0
 0001:0001A022       loc_41B022
 0001:0001A036       loc_41B036
 0001:0001A06D       loc_41B06D
 0001:0001A084       loc_41B084
 0001:0001A0A2       loc_41B0A2
 0001:0001A0FF       loc_41B0FF
 0001:0001A10C       sub_41B10C
 0001:0001A12A       loc_41B12A
 0001:0001A159       loc_41B159
 0001:0001A16A       loc_41B16A
 0001:0001A17B       loc_41B17B
 0001:0001A18E       loc_41B18E
 0001:0001A194       sub_41B194
 0001:0001A24D       loc_41B24D
 0001:0001A2C2       loc_41B2C2
 0001:0001A2EE       loc_41B2EE
 0001:0001A305       loc_41B305
 0001:0001A31C       loc_41B31C
 0001:0001A350       loc_41B350
 0001:0001A35D       loc_41B35D
 0001:0001A366       loc_41B366
 0001:0001A36D       loc_41B36D
 0001:0001A374       byte_41B374
 0001:0001A378       sub_41B378
 0001:0001A3D0       aPixelsperinch
 0001:0001A3E8       aTextheight
 0001:0001A3F4       sub_41B3F4
 0001:0001A40C       unknown_libname_471
 0001:0001A428       unknown_libname_472
 0001:0001A444       Forms::TCustomForm::GetTextHeight(void)
 0001:0001A464       dword_41B464
 0001:0001A468       Forms::TCustomForm::ChangeScale(int,int)
 0001:0001A4C5       loc_41B4C5
 0001:0001A4E8       sub_41B4E8
 0001:0001A526       loc_41B526
 0001:0001A53E       loc_41B53E
 0001:0001A540       TCustomForm::IsClientSizeStored
 0001:0001A550       sub_41B550
 0001:0001A574       loc_41B574
 0001:0001A578       sub_41B578
 0001:0001A598       loc_41B598
 0001:0001A59A       loc_41B59A
 0001:0001A5A2       loc_41B5A2
 0001:0001A5A6       loc_41B5A6
 0001:0001A5AC       sub_41B5AC
 0001:0001A5C6       locret_41B5C6
 0001:0001A5C8       sub_41B5C8
 0001:0001A5E2       locret_41B5E2
 0001:0001A5E4       sub_41B5E4
 0001:0001A65D       loc_41B65D
 0001:0001A66C       sub_41B66C
 0001:0001A69D       loc_41B69D
 0001:0001A6C1       loc_41B6C1
 0001:0001A6C7       loc_41B6C7
 0001:0001A6D0       sub_41B6D0
 0001:0001A701       loc_41B701
 0001:0001A725       loc_41B725
 0001:0001A755       loc_41B755
 0001:0001A759       loc_41B759
 0001:0001A764       sub_41B764
 0001:0001A780       loc_41B780
 0001:0001A78C       byte_41B78C
 0001:0001A790       sub_41B790
 0001:0001A7AC       loc_41B7AC
 0001:0001A7B8       byte_41B7B8
 0001:0001A7BC       sub_41B7BC
 0001:0001A7D5       loc_41B7D5
 0001:0001A7DE       loc_41B7DE
 0001:0001A7E5       loc_41B7E5
 0001:0001A7E8       sub_41B7E8
 0001:0001A80D       locret_41B80D
 0001:0001A810       sub_41B810
 0001:0001A82C       loc_41B82C
 0001:0001A842       loc_41B842
 0001:0001A848       sub_41B848
 0001:0001A87A       loc_41B87A
 0001:0001A884       sub_41B884
 0001:0001A8AB       loc_41B8AB
 0001:0001A9A5       loc_41B9A5
 0001:0001A9C3       loc_41B9C3
 0001:0001A9FD       loc_41B9FD
 0001:0001AA12       loc_41BA12
 0001:0001AA1E       loc_41BA1E
 0001:0001AA27       loc_41BA27
 0001:0001AA2C       sub_41BA2C
 0001:0001AA78       TCustomForm::ClientWndProc
 0001:0001AAAF       loc_41BAAF
 0001:0001AAE5       loc_41BAE5
 0001:0001AAEC       loc_41BAEC
 0001:0001AAF0       sub_41BAF0
 0001:0001AB2A       loc_41BB2A
 0001:0001AB30       sub_41BB30
 0001:0001AB58       loc_41BB58
 0001:0001AB5C       loc_41BB5C
 0001:0001AB7B       loc_41BB7B
 0001:0001AB7D       loc_41BB7D
 0001:0001AB91       loc_41BB91
 0001:0001AB94       sub_41BB94
 0001:0001ABC5       loc_41BBC5
 0001:0001ABC8       sub_41BBC8
 0001:0001ABF3       loc_41BBF3
 0001:0001AC09       loc_41BC09
 0001:0001AC0D       loc_41BC0D
 0001:0001AC14       sub_41BC14
 0001:0001AC3F       loc_41BC3F
 0001:0001AC59       loc_41BC59
 0001:0001AC5D       loc_41BC5D
 0001:0001AC5F       loc_41BC5F
 0001:0001AC64       SqlExpr::_16765
 0001:0001AC6C       loc_41BC6C
 0001:0001AC72       Webscript::TScriptProducer::HandleScriptError(System::DelphiInterface<System::IInterface>)
 0001:0001AC78       sub_41BC78
 0001:0001AC8A       loc_41BC8A
 0001:0001AC9C       loc_41BC9C
 0001:0001AC9F       loc_41BC9F
 0001:0001ACA4       sub_41BCA4
 0001:0001ACAC       sub_41BCAC
 0001:0001ACC9       loc_41BCC9
 0001:0001ACCD       loc_41BCCD
 0001:0001ACD4       sub_41BCD4
 0001:0001ACF9       loc_41BCF9
 0001:0001AD06       loc_41BD06
 0001:0001AD1B       loc_41BD1B
 0001:0001AD34       loc_41BD34
 0001:0001AD41       loc_41BD41
 0001:0001AD4F       loc_41BD4F
 0001:0001AD54       sub_41BD54
 0001:0001AD7F       loc_41BD7F
 0001:0001AD92       loc_41BD92
 0001:0001ADC8       loc_41BDC8
 0001:0001ADD0       loc_41BDD0
 0001:0001ADD6       Qcomctrls::TCustomTreeView::Collapse(Qcomctrls::TTreeNode *)
 0001:0001ADE3       locret_41BDE3
 0001:0001ADE4       sub_41BDE4
 0001:0001AE02       loc_41BE02
 0001:0001AE09       loc_41BE09
 0001:0001AE0C       sub_41BE0C
 0001:0001AE2F       loc_41BE2F
 0001:0001AE77       loc_41BE77
 0001:0001AE7B       loc_41BE7B
 0001:0001AE8C       loc_41BE8C
 0001:0001AE9F       loc_41BE9F
 0001:0001AEBA       loc_41BEBA
 0001:0001AECF       loc_41BECF
 0001:0001AED5       loc_41BED5
 0001:0001AF1B       loc_41BF1B
 0001:0001AF2D       loc_41BF2D
 0001:0001AF52       loc_41BF52
 0001:0001AF6C       loc_41BF6C
 0001:0001AF7E       loc_41BF7E
 0001:0001AF8C       sub_41BF8C
 0001:0001AF9E       locret_41BF9E
 0001:0001AFA0       sub_41BFA0
 0001:0001AFBA       loc_41BFBA
 0001:0001AFC9       loc_41BFC9
 0001:0001AFCF       loc_41BFCF
 0001:0001AFD4       sub_41BFD4
 0001:0001AFED       locret_41BFED
 0001:0001AFF0       sub_41BFF0
 0001:0001AFFC       sub_41BFFC
 0001:0001B027       loc_41C027
 0001:0001B02C       sub_41C02C
 0001:0001B04B       loc_41C04B
 0001:0001B050       sub_41C050
 0001:0001B063       loc_41C063
 0001:0001B068       sub_41C068
 0001:0001B095       loc_41C095
 0001:0001B0AE       loc_41C0AE
 0001:0001B0B0       sub_41C0B0
 0001:0001B0CC       loc_41C0CC
 0001:0001B0D0       sub_41C0D0
 0001:0001B0EC       sub_41C0EC
 0001:0001B128       loc_41C128
 0001:0001B12C       sub_41C12C
 0001:0001B155       loc_41C155
 0001:0001B16E       loc_41C16E
 0001:0001B187       loc_41C187
 0001:0001B1AA       loc_41C1AA
 0001:0001B1AE       loc_41C1AE
 0001:0001B1C3       off_41C1C3
 0001:0001B1DB       loc_41C1DB
 0001:0001B1E8       loc_41C1E8
 0001:0001B1F0       loc_41C1F0
 0001:0001B1F9       loc_41C1F9
 0001:0001B20E       loc_41C20E
 0001:0001B21E       loc_41C21E
 0001:0001B24E       loc_41C24E
 0001:0001B25E       loc_41C25E
 0001:0001B277       loc_41C277
 0001:0001B28D       loc_41C28D
 0001:0001B299       loc_41C299
 0001:0001B2A5       loc_41C2A5
 0001:0001B2B8       loc_41C2B8
 0001:0001B2C5       loc_41C2C5
 0001:0001B2CC       loc_41C2CC
 0001:0001B2D8       loc_41C2D8
 0001:0001B2E4       loc_41C2E4
 0001:0001B2F4       loc_41C2F4
 0001:0001B2FC       byte_41C2FC
 0001:0001B300       byte_41C300
 0001:0001B304       sub_41C304
 0001:0001B342       loc_41C342
 0001:0001B358       loc_41C358
 0001:0001B379       loc_41C379
 0001:0001B39A       loc_41C39A
 0001:0001B416       loc_41C416
 0001:0001B42F       loc_41C42F
 0001:0001B434       aMdiclient
 0001:0001B440       sub_41C440
 0001:0001B472       loc_41C472
 0001:0001B488       loc_41C488
 0001:0001B4F4       loc_41C4F4
 0001:0001B502       loc_41C502
 0001:0001B508       sub_41C508
 0001:0001B539       loc_41C539
 0001:0001B540       loc_41C540
 0001:0001B54C       sub_41C54C
 0001:0001B57D       loc_41C57D
 0001:0001B5A2       loc_41C5A2
 0001:0001B5AB       loc_41C5AB
 0001:0001B5B0       sub_41C5B0
 0001:0001B5DC       loc_41C5DC
 0001:0001B5F2       loc_41C5F2
 0001:0001B608       loc_41C608
 0001:0001B613       loc_41C613
 0001:0001B618       sub_41C618
 0001:0001B63F       loc_41C63F
 0001:0001B659       loc_41C659
 0001:0001B660       sub_41C660
 0001:0001B67C       loc_41C67C
 0001:0001B680       sub_41C680
 0001:0001B6AD       loc_41C6AD
 0001:0001B6B5       loc_41C6B5
 0001:0001B74E       loc_41C74E
 0001:0001B774       loc_41C774
 0001:0001B783       loc_41C783
 0001:0001B794       loc_41C794
 0001:0001B7C9       loc_41C7C9
 0001:0001B7DD       loc_41C7DD
 0001:0001B7E2       loc_41C7E2
 0001:0001B7E4       loc_41C7E4
 0001:0001B813       loc_41C813
 0001:0001B828       loc_41C828
 0001:0001B842       loc_41C842
 0001:0001B849       loc_41C849
 0001:0001B878       loc_41C878
 0001:0001B885       loc_41C885
 0001:0001B899       loc_41C899
 0001:0001B8A0       loc_41C8A0
 0001:0001B8AC       loc_41C8AC
 0001:0001B8B4       byte_41C8B4
 0001:0001B8B8       nullsub_21
 0001:0001B8BC       sub_41C8BC
 0001:0001B8D5       loc_41C8D5
 0001:0001B8D7       loc_41C8D7
 0001:0001B906       loc_41C906
 0001:0001B90C       sub_41C90C
 0001:0001B932       loc_41C932
 0001:0001B95D       loc_41C95D
 0001:0001B96D       loc_41C96D
 0001:0001B970       sub_41C970
 0001:0001B99B       loc_41C99B
 0001:0001B9BD       loc_41C9BD
 0001:0001B9C0       sub_41C9C0
 0001:0001BA25       loc_41CA25
 0001:0001BA4B       loc_41CA4B
 0001:0001BA51       loc_41CA51
 0001:0001BA6E       loc_41CA6E
 0001:0001BA74       loc_41CA74
 0001:0001BAC5       loc_41CAC5
 0001:0001BACC       sub_41CACC
 0001:0001BAE6       locret_41CAE6
 0001:0001BAE8       sub_41CAE8
 0001:0001BB02       locret_41CB02
 0001:0001BB04       sub_41CB04
 0001:0001BB1E       locret_41CB1E
 0001:0001BB20       sub_41CB20
 0001:0001BB3A       locret_41CB3A
 0001:0001BB3C       sub_41CB3C
 0001:0001BB55       locret_41CB55
 0001:0001BB58       sub_41CB58
 0001:0001BB90       loc_41CB90
 0001:0001BB9C       loc_41CB9C
 0001:0001BBA9       loc_41CBA9
 0001:0001BBBA       loc_41CBBA
 0001:0001BBC1       loc_41CBC1
 0001:0001BBC8       sub_41CBC8
 0001:0001BBFF       loc_41CBFF
 0001:0001BC16       loc_41CC16
 0001:0001BC48       loc_41CC48
 0001:0001BC4F       loc_41CC4F
 0001:0001BC66       loc_41CC66
 0001:0001BC74       TCustomForm::WMPaint
 0001:0001BC99       loc_41CC99
 0001:0001BCC9       loc_41CCC9
 0001:0001BCD0       sub_41CCD0
 0001:0001BD20       loc_41CD20
 0001:0001BD29       loc_41CD29
 0001:0001BD30       Forms::TCustomForm::WMEraseBkgnd(Messages::TWMEraseBkgnd &)
 0001:0001BD53       loc_41CD53
 0001:0001BD68       Forms::TCustomForm::WMQueryDragIcon(Messages::TWMNoParams &)
 0001:0001BD7C       sub_41CD7C
 0001:0001BE3A       loc_41CE3A
 0001:0001BE56       loc_41CE56
 0001:0001BE72       loc_41CE72
 0001:0001BE78       sub_41CE78
 0001:0001BEA8       loc_41CEA8
 0001:0001BEAC       sub_41CEAC
 0001:0001BED1       loc_41CED1
 0001:0001BEFF       loc_41CEFF
 0001:0001BF0C       sub_41CF0C
 0001:0001BF34       loc_41CF34
 0001:0001BF3D       loc_41CF3D
 0001:0001BF40       sub_41CF40
 0001:0001BF54       locret_41CF54
 0001:0001BF58       sub_41CF58
 0001:0001BF8D       loc_41CF8D
 0001:0001BFA5       loc_41CFA5
 0001:0001BFB6       loc_41CFB6
 0001:0001BFD4       loc_41CFD4
 0001:0001BFE0       loc_41CFE0
 0001:0001BFED       loc_41CFED
 0001:0001BFF6       loc_41CFF6
 0001:0001BFFD       loc_41CFFD
 0001:0001C004       sub_41D004
 0001:0001C013       loc_41D013
 0001:0001C020       locret_41D020
 0001:0001C024       sub_41D024
 0001:0001C048       loc_41D048
 0001:0001C051       loc_41D051
 0001:0001C05A       loc_41D05A
 0001:0001C061       loc_41D061
 0001:0001C070       loc_41D070
 0001:0001C081       loc_41D081
 0001:0001C08C       sub_41D08C
 0001:0001C094       sub_41D094
 0001:0001C0AC       sub_41D0AC
 0001:0001C0D9       loc_41D0D9
 0001:0001C0FF       loc_41D0FF
 0001:0001C104       sub_41D104
 0001:0001C12B       loc_41D12B
 0001:0001C134       sub_41D134
 0001:0001C147       loc_41D147
 0001:0001C161       loc_41D161
 0001:0001C17B       loc_41D17B
 0001:0001C182       loc_41D182
 0001:0001C18E       loc_41D18E
 0001:0001C1BE       loc_41D1BE
 0001:0001C1C7       loc_41D1C7
 0001:0001C1CC       sub_41D1CC
 0001:0001C221       loc_41D221
 0001:0001C224       sub_41D224
 0001:0001C235       loc_41D235
 0001:0001C250       Forms::TCustomForm::WMEnterMenuLoop(Messages::TMessage &)
 0001:0001C26C       sub_41D26C
 0001:0001C2A8       loc_41D2A8
 0001:0001C2AC       sub_41D2AC
 0001:0001C2D1       loc_41D2D1
 0001:0001C2D4       loc_41D2D4
 0001:0001C2E1       loc_41D2E1
 0001:0001C2ED       loc_41D2ED
 0001:0001C308       loc_41D308
 0001:0001C324       loc_41D324
 0001:0001C330       loc_41D330
 0001:0001C334       sub_41D334
 0001:0001C340       sub_41D340
 0001:0001C34C       Forms::TCustomForm::CMDialogKey(Messages::TWMKey &)
 0001:0001C373       loc_41D373
 0001:0001C3A5       loc_41D3A5
 0001:0001C3C5       loc_41D3C5
 0001:0001C3C7       loc_41D3C7
 0001:0001C3DA       loc_41D3DA
 0001:0001C3E3       loc_41D3E3
 0001:0001C3E8       sub_41D3E8
 0001:0001C41D       loc_41D41D
 0001:0001C476       loc_41D476
 0001:0001C48D       loc_41D48D
 0001:0001C4C5       loc_41D4C5
 0001:0001C4E1       loc_41D4E1
 0001:0001C4FA       loc_41D4FA
 0001:0001C511       loc_41D511
 0001:0001C517       loc_41D517
 0001:0001C51D       loc_41D51D
 0001:0001C537       loc_41D537
 0001:0001C593       loc_41D593
 0001:0001C5E2       loc_41D5E2
 0001:0001C604       loc_41D604
 0001:0001C629       loc_41D629
 0001:0001C64D       loc_41D64D
 0001:0001C664       loc_41D664
 0001:0001C67B       loc_41D67B
 0001:0001C694       loc_41D694
 0001:0001C6BF       loc_41D6BF
 0001:0001C6F5       loc_41D6F5
 0001:0001C71E       loc_41D71E
 0001:0001C72E       loc_41D72E
 0001:0001C73B       loc_41D73B
 0001:0001C746       loc_41D746
 0001:0001C74D       loc_41D74D
 0001:0001C754       sub_41D754
 0001:0001C76F       loc_41D76F
 0001:0001C774       sub_41D774
 0001:0001C77C       sub_41D77C
 0001:0001C7C8       loc_41D7C8
 0001:0001C7CC       sub_41D7CC
 0001:0001C7D4       sub_41D7D4
 0001:0001C7EE       loc_41D7EE
 0001:0001C811       loc_41D811
 0001:0001C817       loc_41D817
 0001:0001C81B       loc_41D81B
 0001:0001C835       loc_41D835
 0001:0001C851       loc_41D851
 0001:0001C860       loc_41D860
 0001:0001C871       loc_41D871
 0001:0001C878       loc_41D878
 0001:0001C87C       sub_41D87C
 0001:0001C8A0       loc_41D8A0
 0001:0001C8B6       loc_41D8B6
 0001:0001C8D4       loc_41D8D4
 0001:0001C8DC       sub_41D8DC
 0001:0001C8E4       Forms::TCustomForm::Show(void)
 0001:0001C8FC       sub_41D8FC
 0001:0001C911       loc_41D911
 0001:0001C927       loc_41D927
 0001:0001C92C       locret_41D92C
 0001:0001C930       Forms::TCustomForm::Release(void)
 0001:0001C94C       Proc
 0001:0001C992       loc_41D992
 0001:0001C99B       loc_41D99B
 0001:0001C9A2       loc_41D9A2
 0001:0001C9AC       TScreen::`...'
 0001:0001C9BE       loc_41D9BE
 0001:0001CA3D       loc_41DA3D
 0001:0001CA44       sub_41DA44
 0001:0001CA7D       loc_41DA7D
 0001:0001CA84       TScreen::GetHeight
 0001:0001CA8C       TScreen::GetWidth
 0001:0001CA94       TWriter::AddAncestor
 0001:0001CAA0       sub_41DAA0
 0001:0001CAA8       sub_41DAA8
 0001:0001CAC5       loc_41DAC5
 0001:0001CADF       loc_41DADF
 0001:0001CAE4       TWriter::AddAncestor
 0001:0001CAF0       sub_41DAF0
 0001:0001CB1C       loc_41DB1C
 0001:0001CB20       sub_41DB20
 0001:0001CB3F       loc_41DB3F
 0001:0001CB51       loc_41DB51
 0001:0001CB53       loc_41DB53
 0001:0001CB78       sub_41DB78
 0001:0001CB84       loc_41DB84
 0001:0001CB90       loc_41DB90
 0001:0001CB99       loc_41DB99
 0001:0001CBAD       loc_41DBAD
 0001:0001CBC6       loc_41DBC6
 0001:0001CBCC       Qforms::TScreen::InsertCursor(int,Qt::QCursorH *)
 0001:0001CBF4       sub_41DBF4
 0001:0001CC00       sub_41DC00
 0001:0001CC08       sub_41DC08
 0001:0001CC14       loc_41DC14
 0001:0001CC16       loc_41DC16
 0001:0001CC1F       loc_41DC1F
 0001:0001CC28       loc_41DC28
 0001:0001CC2B       loc_41DC2B
 0001:0001CC30       sub_41DC30
 0001:0001CC3A       loc_41DC3A
 0001:0001CC45       loc_41DC45
 0001:0001CC52       loc_41DC52
 0001:0001CC56       loc_41DC56
 0001:0001CC60       sub_41DC60
 0001:0001CC62       loc_41DC62
 0001:0001CC65       loc_41DC65
 0001:0001CC6F       loc_41DC6F
 0001:0001CC7B       locret_41DC7B
 0001:0001CC7C       Forms::_16693
 0001:0001CC92       loc_41DC92
 0001:0001CC98       StartAddress
 0001:0001CCA4       loc_41DCA4
 0001:0001CCE8       Forms::_16832
 0001:0001CD20       loc_41DD20
 0001:0001CD2C       sub_41DD2C
 0001:0001CD5B       loc_41DD5B
 0001:0001CD7F       loc_41DD7F
 0001:0001CD84       Forms::_16834
 0001:0001CD98       loc_41DD98
 0001:0001CDB5       loc_41DDB5
 0001:0001CDC0       sub_41DDC0
 0001:0001CDEB       loc_41DDEB
 0001:0001CDF0       sub_41DDF0
 0001:0001CE14       Forms::_16837
 0001:0001CE2D       loc_41DE2D
 0001:0001CE3F       loc_41DE3F
 0001:0001CE44       Forms::_16852
 0001:0001CE54       TApplication::`...'
 0001:0001CE6B       loc_41DE6B
 0001:0001CF48       loc_41DF48
 0001:0001CF5C       loc_41DF5C
 0001:0001CF8C       loc_41DF8C
 0001:0001CFA4       loc_41DFA4
 0001:0001CFAC       IconName
 0001:0001CFB8       sub_41DFB8
 0001:0001D004       loc_41E004
 0001:0001D00D       loc_41E00D
 0001:0001D019       loc_41E019
 0001:0001D034       loc_41E034
 0001:0001D03C       sub_41E03C
 0001:0001D09F       loc_41E09F
 0001:0001D0AD       loc_41E0AD
 0001:0001D0BC       loc_41E0BC
 0001:0001D132       loc_41E132
 0001:0001D16F       loc_41E16F
 0001:0001D174       sub_41E174
 0001:0001D17F       loc_41E17F
 0001:0001D189       loc_41E189
 0001:0001D19F       loc_41E19F
 0001:0001D1B5       loc_41E1B5
 0001:0001D1CB       loc_41E1CB
 0001:0001D1D5       loc_41E1D5
 0001:0001D1E4       EnumFunc
 0001:0001D228       loc_41E228
 0001:0001D239       loc_41E239
 0001:0001D240       loc_41E240
 0001:0001D24C       sub_41E24C
 0001:0001D2A4       loc_41E2A4
 0001:0001D2B0       loc_41E2B0
 0001:0001D2D5       loc_41E2D5
 0001:0001D2D8       loc_41E2D8
 0001:0001D2DC       sub_41E2DC
 0001:0001D300       loc_41E300
 0001:0001D322       loc_41E322
 0001:0001D32A       loc_41E32A
 0001:0001D330       sub_41E330
 0001:0001D345       loc_41E345
 0001:0001D34C       sub_41E34C
 0001:0001D388       sub_41E388
 0001:0001D3D4       sub_41E3D4
 0001:0001D40D       loc_41E40D
 0001:0001D438       loc_41E438
 0001:0001D43C       loc_41E43C
 0001:0001D48D       loc_41E48D
 0001:0001D4B4       loc_41E4B4
 0001:0001D4EF       loc_41E4EF
 0001:0001D518       loc_41E518
 0001:0001D533       loc_41E533
 0001:0001D540       loc_41E540
 0001:0001D54D       loc_41E54D
 0001:0001D559       loc_41E559
 0001:0001D571       loc_41E571
 0001:0001D596       loc_41E596
 0001:0001D5B2       loc_41E5B2
 0001:0001D5BE       loc_41E5BE
 0001:0001D5D3       loc_41E5D3
 0001:0001D5E6       loc_41E5E6
 0001:0001D607       loc_41E607
 0001:0001D64B       loc_41E64B
 0001:0001D66D       loc_41E66D
 0001:0001D69B       loc_41E69B
 0001:0001D6A7       loc_41E6A7
 0001:0001D6CE       loc_41E6CE
 0001:0001D6DB       loc_41E6DB
 0001:0001D707       loc_41E707
 0001:0001D71E       loc_41E71E
 0001:0001D779       loc_41E779
 0001:0001D812       loc_41E812
 0001:0001D83A       loc_41E83A
 0001:0001D862       loc_41E862
 0001:0001D89E       loc_41E89E
 0001:0001D8B5       loc_41E8B5
 0001:0001D8D3       loc_41E8D3
 0001:0001D8E8       loc_41E8E8
 0001:0001D902       loc_41E902
 0001:0001D913       loc_41E913
 0001:0001D91A       loc_41E91A
 0001:0001D924       loc_41E924
 0001:0001D939       loc_41E939
 0001:0001D940       TApplication::GetIconHandle
 0001:0001D958       locret_41E958
 0001:0001D95C       sub_41E95C
 0001:0001D9A1       loc_41E9A1
 0001:0001D9A4       sub_41E9A4
 0001:0001D9EB       loc_41E9EB
 0001:0001DA03       loc_41EA03
 0001:0001DA08       sub_41EA08
 0001:0001DA3E       loc_41EA3E
 0001:0001DA44       sub_41EA44
 0001:0001DA76       loc_41EA76
 0001:0001DA80       loc_41EA80
 0001:0001DA8C       sub_41EA8C
 0001:0001DAAC       loc_41EAAC
 0001:0001DAB0       sub_41EAB0
 0001:0001DAFA       loc_41EAFA
 0001:0001DB00       TApplication::IsKeyMsg
 0001:0001DB3F       loc_41EB3F
 0001:0001DB5C       loc_41EB5C
 0001:0001DB64       sub_41EB64
 0001:0001DB8C       loc_41EB8C
 0001:0001DB94       sub_41EB94
 0001:0001DBE0       loc_41EBE0
 0001:0001DC38       loc_41EC38
 0001:0001DC3C       loc_41EC3C
 0001:0001DC44       Comobj::OleCheck(long)
 0001:0001DC59       loc_41EC59
 0001:0001DC5C       sub_41EC5C
 0001:0001DC82       loc_41EC82
 0001:0001DCAF       loc_41ECAF
 0001:0001DCB4       sub_41ECB4
 0001:0001DCDC       loc_41ECDC
 0001:0001DCED       loc_41ECED
 0001:0001DD22       loc_41ED22
 0001:0001DD26       loc_41ED26
 0001:0001DD30       @RegisterLibraryExpert
 0001:0001DD3F       locret_41ED3F
 0001:0001DD40       sub_41ED40
 0001:0001DD84       loc_41ED84
 0001:0001DDA2       loc_41EDA2
 0001:0001DDC6       loc_41EDC6
 0001:0001DDD0       sub_41EDD0
 0001:0001DE10       loc_41EE10
 0001:0001DE21       loc_41EE21
 0001:0001DE2E       loc_41EE2E
 0001:0001DE36       loc_41EE36
 0001:0001DE3D       loc_41EE3D
 0001:0001DE40       sub_41EE40
 0001:0001DE48       Forms::TApplication::HandleException(System::TObject *)
 0001:0001DE68       loc_41EE68
 0001:0001DEAF       loc_41EEAF
 0001:0001DEC0       loc_41EEC0
 0001:0001DED1       loc_41EED1
 0001:0001DED4       TApplication::MessageBox
 0001:0001DF23       loc_41EF23
 0001:0001DF35       loc_41EF35
 0001:0001DF3C       loc_41EF3C
 0001:0001DF48       sub_41EF48
 0001:0001DFB0       loc_41EFB0
 0001:0001DFBE       loc_41EFBE
 0001:0001DFC5       loc_41EFC5
 0001:0001DFCC       TypInfo::_16410
 0001:0001DFD4       dword_41EFD4
 0001:0001DFD8       sub_41EFD8
 0001:0001E00F       loc_41F00F
 0001:0001E02C       loc_41F02C
 0001:0001E04D       loc_41F04D
 0001:0001E069       loc_41F069
 0001:0001E074       Forms::TApplication::HelpContext(int)
 0001:0001E080       sub_41F080
 0001:0001E088       sub_41F088
 0001:0001E0B7       loc_41F0B7
 0001:0001E0C4       loc_41F0C4
 0001:0001E0C8       sub_41F0C8
 0001:0001E10A       loc_41F10A
 0001:0001E120       loc_41F120
 0001:0001E129       loc_41F129
 0001:0001E13A       loc_41F13A
 0001:0001E147       loc_41F147
 0001:0001E150       loc_41F150
 0001:0001E161       loc_41F161
 0001:0001E173       loc_41F173
 0001:0001E17A       loc_41F17A
 0001:0001E1BB       loc_41F1BB
 0001:0001E1C6       loc_41F1C6
 0001:0001E1D3       loc_41F1D3
 0001:0001E1E1       loc_41F1E1
 0001:0001E1E8       loc_41F1E8
 0001:0001E1F0       Forms::TApplication::NotifyForms(ushort)
 0001:0001E209       loc_41F209
 0001:0001E225       loc_41F225
 0001:0001E22C       sub_41F22C
 0001:0001E252       loc_41F252
 0001:0001E26C       loc_41F26C
 0001:0001E27C       sub_41F27C
 0001:0001E2B0       loc_41F2B0
 0001:0001E2B4       sub_41F2B4
 0001:0001E2F3       loc_41F2F3
 0001:0001E2F8       sub_41F2F8
 0001:0001E311       loc_41F311
 0001:0001E314       TApplication::HintMouseMessage
 0001:0001E358       loc_41F358
 0001:0001E361       loc_41F361
 0001:0001E396       loc_41F396
 0001:0001E3A7       loc_41F3A7
 0001:0001E3AA       loc_41F3AA
 0001:0001E3C5       loc_41F3C5
 0001:0001E3D0       sub_41F3D0
 0001:0001E3EF       loc_41F3EF
 0001:0001E3FE       loc_41F3FE
 0001:0001E404       sub_41F404
 0001:0001E43C       loc_41F43C
 0001:0001E440       sub_41F440
 0001:0001E465       loc_41F465
 0001:0001E468       sub_41F468
 0001:0001E533       loc_41F533
 0001:0001E53F       loc_41F53F
 0001:0001E5C5       loc_41F5C5
 0001:0001E695       loc_41F695
 0001:0001E69C       loc_41F69C
 0001:0001E6A9       loc_41F6A9
 0001:0001E6BA       loc_41F6BA
 0001:0001E6C1       loc_41F6C1
 0001:0001E6C8       sub_41F6C8
 0001:0001E6F0       unknown_libname_341
 0001:0001E708       off_41F708
 0001:0001E768       dword_41F768
 0001:0001E77C       dword_41F77C
 0001:0001E78C       tiTCustomLabel
 0001:0001E7A4       aStdctrls
 0001:0001E7E4       off_41F7E4
 0001:0001E844       dword_41F844
 0001:0001E84C       dword_41F84C
 0001:0001E89C       unknown_libname_342
 0001:0001EAB8       unknown_libname_343
 0001:0001EBB4       unknown_libname_344
 0001:0001EC48       unknown_libname_345
 0001:0001ECD0       off_41FCD0
 0001:0001ED4C       dword_41FD4C
 0001:0001ED78       dword_41FD78
 0001:0001ED84       tiTCustomEdit
 0001:0001EDFC       off_41FDFC
 0001:0001EE78       dword_41FE78
 0001:0001EE80       dword_41FE80
 0001:0001EF60       unknown_libname_347
 0001:0001F114       unknown_libname_348
 0001:0001F270       unknown_libname_349
 0001:0001F468       off_420468
 0001:0001F4E4       dword_4204E4
 0001:0001F4F4       tiTButtonControl
 0001:0001F548       `__vtable__'[TFieldDataLink]
 0001:0001F550       off_420550
 0001:0001F5D0       dword_4205D0
 0001:0001F5F0       dword_4205F0
 0001:0001F5F8       unknown_libname_351
 0001:0001F9FC       sub_4209FC
 0001:0001FA02       loc_420A02
 0001:0001FA0F       loc_420A0F
 0001:0001FA11       loc_420A11
 0001:0001FA14       TBaseProvider::`...'
 0001:0001FA22       loc_420A22
 0001:0001FA71       loc_420A71
 0001:0001FA78       word_420A78
 0001:0001FA7C       Dblookup::TDBLookupCombo::GetDisplayValue(void)
 0001:0001FA90       sub_420A90
 0001:0001FADD       loc_420ADD
 0001:0001FAEA       loc_420AEA
 0001:0001FAF8       loc_420AF8
 0001:0001FB1F       loc_420B1F
 0001:0001FB54       loc_420B54
 0001:0001FB5D       loc_420B5D
 0001:0001FB64       loc_420B64
 0001:0001FB6C       TeeAxisIncr::_16393
 0001:0001FB74       dword_420B74
 0001:0001FB78       sub_420B78
 0001:0001FBBB       loc_420BBB
 0001:0001FBF4       sub_420BF4
 0001:0001FC75       loc_420C75
 0001:0001FC8B       loc_420C8B
 0001:0001FC94       loc_420C94
 0001:0001FCA7       locret_420CA7
 0001:0001FCA8       sub_420CA8
 0001:0001FCBB       locret_420CBB
 0001:0001FCBC       sub_420CBC
 0001:0001FCC8       loc_420CC8
 0001:0001FCD8       locret_420CD8
 0001:0001FCDC       loc_420CDC
 0001:0001FCEF       locret_420CEF
 0001:0001FCF0       sub_420CF0
 0001:0001FD17       loc_420D17
 0001:0001FD25       loc_420D25
 0001:0001FD2C       loc_420D2C
 0001:0001FD30       unknown_libname_352
 0001:0001FD34       loc_420D34
 0001:0001FD47       locret_420D47
 0001:0001FD48       sub_420D48
 0001:0001FD71       loc_420D71
 0001:0001FD78       sub_420D78
 0001:0001FD8C       sub_420D8C
 0001:0001FDA0       sub_420DA0
 0001:0001FE0B       loc_420E0B
 0001:0001FE18       loc_420E18
 0001:0001FE21       loc_420E21
 0001:0001FE28       loc_420E28
 0001:0001FE30       sub_420E30
 0001:0001FE3E       loc_420E3E
 0001:0001FE60       loc_420E60
 0001:0001FE6A       loc_420E6A
 0001:0001FEC5       loc_420EC5
 0001:0001FECC       word_420ECC
 0001:0001FED0       word_420ED0
 0001:0001FED4       loc_420ED4
 0001:0001FEE7       locret_420EE7
 0001:0001FEE8       sub_420EE8
 0001:0001FF07       loc_420F07
 0001:0001FF0C       loc_420F0C
 0001:0001FF1F       locret_420F1F
 0001:0001FF20       loc_420F20
 0001:0001FF33       locret_420F33
 0001:0001FF34       sub_420F34
 0001:0001FF68       loc_420F68
 0001:0001FF6C       loc_420F6C
 0001:0001FF7F       locret_420F7F
 0001:0001FF80       sub_420F80
 0001:0001FFB0       loc_420FB0
 0001:0001FFB8       Stdctrls::TCustomEdit::SetModified(bool)
 0001:0001FFE5       loc_420FE5
 0001:0001FFF0       sub_420FF0
 0001:00020059       loc_421059
 0001:00020066       loc_421066
 0001:0002006F       loc_42106F
 0001:00020076       loc_421076
 0001:0002007C       sub_42107C
 0001:000200B4       loc_4210B4
 0001:000200B8       Stdctrls::TCustomEdit::SelectAll(void)
 0001:000200D4       sub_4210D4
 0001:00020184       loc_421184
 0001:00020188       ClassName
 0001:00020190       sub_421190
 0001:000201C4       loc_4211C4
 0001:000201CF       loc_4211CF
 0001:000201D6       loc_4211D6
 0001:00020232       loc_421232
 0001:00020240       sub_421240
 0001:0002025C       sub_42125C
 0001:00020288       loc_421288
 0001:0002029C       word_42129C
 0001:000202A0       sub_4212A0
 0001:000202FC       loc_4212FC
 0001:00020301       loc_421301
 0001:0002030E       loc_42130E
 0001:0002031B       loc_42131B
 0001:0002032C       loc_42132C
 0001:00020333       loc_421333
 0001:00020348       sub_421348
 0001:00020362       locret_421362
 0001:00020364       sub_421364
 0001:00020385       loc_421385
 0001:000203A0       loc_4213A0
 0001:000203A9       loc_4213A9
 0001:000203AC       sub_4213AC
 0001:000203E8       loc_4213E8
 0001:000203EC       sub_4213EC
 0001:00020412       loc_421412
 0001:00020420       sub_421420
 0001:0002043C       loc_42143C
 0001:00020443       loc_421443
 0001:00020448       sub_421448
 0001:00020463       loc_421463
 0001:00020468       sub_421468
 0001:00020497       loc_421497
 0001:000204A4       sub_4214A4
 0001:000204CC       loc_4214CC
 0001:000204D7       loc_4214D7
 0001:000204DC       sub_4214DC
 0001:000204F9       loc_4214F9
 0001:00020532       loc_421532
 0001:0002053B       loc_42153B
 0001:00020544       loc_421544
 0001:00020548       TButton::`...'
 0001:00020556       loc_421556
 0001:0002059C       loc_42159C
 0001:000205A4       word_4215A4
 0001:000205A8       sub_4215A8
 0001:000205C2       loc_4215C2
 0001:000205CC       Stdctrls::TButton::SetButtonStyle(bool)
 0001:000205E9       loc_4215E9
 0001:000205EB       loc_4215EB
 0001:00020619       loc_421619
 0001:00020620       sub_421620
 0001:0002064E       loc_42164E
 0001:00020650       sub_421650
 0001:00020684       aButton
 0001:0002068C       sub_42168C
 0001:000206A4       sub_4216A4
 0001:000206B5       loc_4216B5
 0001:000206B8       sub_4216B8
 0001:000206CE       loc_4216CE
 0001:000206DE       loc_4216DE
 0001:00020710       loc_421710
 0001:0002071C       byte_42171C
 0001:00020720       sub_421720
 0001:00020773       loc_421773
 0001:0002077C       loc_42177C
 0001:00020789       loc_421789
 0001:00020792       loc_421792
 0001:00020799       loc_421799
 0001:000207A0       sub_4217A0
 0001:000207C7       loc_4217C7
 0001:000207D3       loc_4217D3
 0001:000207F0       Dialogs::_16570
 0001:00020854       String
 0001:00020864       aCommdlgFindrep
 0001:00020878       aWndprocptr8x8x
 0001:0002088C       sub_42188C
 0001:000208A2       locret_4218A2
 0001:000208A4       sub_4218A4
 0001:000208D4       `__vtable__'[TFieldDataLink]
 0001:000208E8       off_4218E8
 0001:00020964       byte_421964
 0001:0002096A       unknown_libname_353
 0001:0002099F       byte_42199F
 0001:000209B4       dword_4219B4
 0001:000209C8       dword_4219C8
 0001:000209E4       loc_4219E4
 0001:00020A0C       `__vtable__'[TFieldDataLink]
 0001:00020A20       off_421A20
 0001:00020A9C       byte_421A9C
 0001:00020AD2       word_421AD2
 0001:00020AE4       dword_421AE4
 0001:00020B00       loc_421B00
 0001:00020B24       unknown_libname_354
 0001:00020B3C       off_421B3C
 0001:00020BB8       byte_421BB8
 0001:00020BE6       word_421BE6
 0001:00020BFB       byte_421BFB
 0001:00020C02       word_421C02
 0001:00020C0C       dword_421C0C
 0001:00020C28       loc_421C28
 0001:00020C50       `__vtable__'[TFieldDataLink]
 0001:00020C64       off_421C64
 0001:00020CE0       byte_421CE0
 0001:00020CE6       unknown_libname_355
 0001:00020D28       dword_421D28
 0001:00020D86       word_421D86
 0001:00020D98       dword_421D98
 0001:00020DB4       loc_421DB4
 0001:00020DC0       loc_421DC0
 0001:00020DC8       sub_421DC8
 0001:00020E1E       loc_421E1E
 0001:00020E2D       loc_421E2D
 0001:00020E3E       loc_421E3E
 0001:00020E61       loc_421E61
 0001:00020E6B       loc_421E6B
 0001:00020E78       loc_421E78
 0001:00020E86       loc_421E86
 0001:00020E8D       loc_421E8D
 0001:00020E94       sub_421E94
 0001:00020EDD       loc_421EDD
 0001:00020EEA       loc_421EEA
 0001:00020F20       loc_421F20
 0001:00020F40       loc_421F40
 0001:00020F4E       loc_421F4E
 0001:00020F55       loc_421F55
 0001:00020F64       aCrackme2ByDope
 0001:00020F7C       loc_421F7C
 0001:00020F88       start
 0002:00000000       word_423000
 0002:00000004       byte_423004
 0002:00000008       off_423008
 0002:0000000C       off_42300C
 0002:00000010       off_423010
 0002:00000014       word_423014
 0002:00000018       Text
 0002:00000028       aAt00000000
 0002:00000036       Caption
 0002:0000003C       unk_42303C
 0002:0000007C       asc_42307C
 0002:00000084       dword_423084
 0002:00000088       dwDesiredAccess
 0002:00000094       dwShareMode
 0002:000000A8       dword_4230A8
 0002:000000AC       dword_4230AC
 0002:000000D0       dword_4230D0
 0002:00000180       flt_423180
 0002:00000184       dword_423184
 0002:00000188       dword_423188
 0002:0000018C       dword_42318C
 0002:00000190       dword_423190
 0002:00000194       unk_423194
 0002:0000019C       unk_42319C
 0002:000001A8       unk_4231A8
 0002:000001B4       aE
 0002:000001E0       dword_4231E0
 0002:000001E8       dword_4231E8
 0002:000001F4       dword_4231F4
 0002:000001FC       dword_4231FC
 0002:00000208       dword_423208
 0002:00000210       dword_423210
 0002:00000218       dword_423218
 0002:00000220       dword_423220
 0002:00000228       dword_423228
 0002:00000230       word_423230
 0002:00000238       hData
 0002:0000023C       unk_42323C
 0002:00000240       off_423240
 0002:000002DC       dword_4232DC
 0002:000002E0       word_4232E0
 0002:000002E4       word_4232E4
 0002:000002E8       dword_4232E8
 0002:000002F0       unk_4232F0
 0002:000002F4       off_4232F4
 0002:00000440       unk_423440
 0002:00000444       dword_423444
 0002:0000046C       unk_42346C
 0002:0000047C       word_42347C
 0002:0000048C       unk_42348C
 0002:0000049C       word_42349C
 0002:000004BC       dword_4234BC
 0002:000004C0       dword_4234C0
 0002:000004C4       dword_4234C4
 0002:000004C8       dword_4234C8
 0002:000004CC       off_4234CC
 0002:000004D0       byte_4234D0
 0002:000004D4       dword_4234D4
 0002:000004D8       dword_4234D8
 0002:000004DC       dword_4234DC
 0002:000004E0       dword_4234E0
 0002:000004E4       dword_4234E4
 0002:000004E8       hLibModule
 0002:000004EC       unk_4234EC
 0002:000004F0       WndClass
 0002:00000518       nCmdShow
 0002:00000520       dword_423520
 0002:00000530       dword_423530
 0002:0000053C       unk_42353C
 0002:00000588       stru_423588
 0002:000005B0       dword_4235B0
 0002:000005B8       word_4235B8
 0002:000005C0       word_4235C0
 0002:000005C4       dword_4235C4
 0002:000005CC       dword_4235CC
 0002:000005D4       dword_4235D4
 0002:000005E0       dword_4235E0
 0002:000005E8       dword_4235E8
 0002:000005F0       dword_4235F0
 0002:000005F8       nAtom
 0002:000005FC       unk_4235FC
 0003:00000000       dword_424000
 0003:00000004       dword_424004
 0003:00000008       dword_424008
 0003:0000000C       dword_42400C
 0003:00000010       dword_424010
 0003:00000014       hInstance
 0003:00000018       dword_424018
 0003:0000001C       dword_42401C
 0003:00000020       dword_424020
 0003:00000024       uExitCode
 0003:00000028       dword_424028
 0003:0000002C       dword_42402C
 0003:00000030       dword_424030
 0003:00000034       byte_424034
 0003:00000035       byte_424035
 0003:00000036       byte_424036
 0003:00000037       byte_424037
 0003:00000038       byte_424038
 0003:00000039       byte_424039
 0003:0000003C       unk_42403C
 0003:00000208       unk_424208
 0003:000003D4       TlsIndex
 0003:000003D8       dword_4243D8
 0003:000003E0       word_4243E0
 0003:000003F0       word_4243F0
 0003:00000400       dword_424400
 0003:00000404       dword_424404
 0003:00000408       dword_424408
 0003:0000040C       dword_42440C
 0003:00000410       dword_424410
 0003:00000414       dword_424414
 0003:00000418       byte_424418
 0003:00000419       byte_424419
 0003:0000041C       dword_42441C
 0003:00000420       CriticalSection
 0003:00000438       dword_424438
 0003:0000043C       unk_42443C
 0003:00000440       dword_424440
 0003:00000450       unk_424450
 0003:00000460       unk_424460
 0003:00000464       dword_424464
 0003:0000046C       dword_42446C
 0003:00000470       dword_424470
 0003:00000474       dword_424474
 0003:00000478       hMem
 0003:0000047C       dword_42447C
 0003:0000048C       dword_42448C
 0003:00000490       dword_424490
 0003:00000494       dword_424494
 0003:00000498       byte_424498
 0003:00000499       byte_424499
 0003:0000049A       byte_42449A
 0003:0000049B       byte_42449B
 0003:0000049C       byte_42449C
 0003:0000049D       byte_42449D
 0003:000004A0       unk_4244A0
 0003:000004A4       unk_4244A4
 0003:000004A8       byte_4244A8
 0003:000004AC       unk_4244AC
 0003:000004B0       unk_4244B0
 0003:000004B4       unk_4244B4
 0003:000004B8       unk_4244B8
 0003:000004BC       dword_4244BC
 0003:000004EC       unk_4244EC
 0003:000004F0       dword_4244F0
 0003:0000051C       unk_42451C
 0003:00000538       unk_424538
 0003:00000550       dword_424550
 0003:00000554       dword_424554
 0003:00000558       dword_424558
 0003:0000055C       dword_42455C
 0003:00000560       dword_424560
 0003:00000564       dword_424564
 0003:00000568       dword_424568
 0003:0000056C       dword_42456C
 0003:00000570       unk_424570
 0003:00000578       dword_424578
 0003:0000057C       dword_42457C
 0003:000005AC       dword_4245AC
 0003:000005B0       dword_4245B0
 0003:000005B4       dword_4245B4
 0003:000005B8       dword_4245B8
 0003:000005BC       dword_4245BC
 0003:000005C0       byte_4245C0
 0003:000005C2       word_4245C2
 0003:000005C4       word_4245C4
 0003:000005C8       dword_4245C8
 0003:000005CC       dword_4245CC
 0003:000005D0       byte_4245D0
 0003:000005D4       dword_4245D4
 0003:000005D8       dword_4245D8
 0003:000005DC       hWnd
 0003:000005E0       Point
 0003:000005E8       dword_4245E8
 0003:000005EC       dword_4245EC
 0003:000005F0       hCursor
 0003:000005F4       byte_4245F4
 0003:000005F8       dword_4245F8
 0003:000005FC       dword_4245FC
 0003:00000600       nNumerator
 0003:00000604       h
 0003:00000608       dword_424608
 0003:0000060C       dword_42460C
 0003:00000610       dword_424610
 0003:00000614       dword_424614
 0003:00000618       dword_424618
 0003:0000061C       dword_42461C
 0003:00000620       dword_424620
 0003:00000624       dword_424624
 0003:00000628       dword_424628
 0003:0000062C       dword_42462C
 0003:00000630       dword_424630
 0003:00000634       dword_424634
 0003:00000638       dword_424638
 0003:0000063C       dword_42463C
 0003:00000640       dword_424640
 0003:00000644       dword_424644
 0003:00000648       dword_424648
 0003:0000064C       dword_42464C
 0003:00000650       hhk
 0003:00000654       hThread
 0003:00000658       dword_424658
 0003:0000065C       dword_42465C
 0003:00000660       dword_424660
 0003:00000664       dword_424664
 0003:00000668       dword_424668
 0003:0000066C       dword_42466C
 0005:00000000       TlsStart
 0005:00000008       TlsEnd
 0006:00000000       TlsDirectory
 0006:00000004       TlsEnd_ptr
 0006:00000008       TlsIndex_ptr
 0006:0000000C       TlsCallbacks_ptr
 0006:00000010       TlsSizeOfZeroFill
 0006:00000014       TlsCharacteristics

Program entry point at 0001:00020F88
